
AVRASM ver. 1.75.6 cam_km5.avr Fri Nov 30 18:07:07 2007


cam_km5.avr(2315): warning: A .db segment with an odd number of bytes is detected. A zero byte is added.
cam_km5.avr(1410): warning: A .db segment with an odd number of bytes is detected. A zero byte is added.
         
         ;V2.03-устранил ошибку в длине передаваемых данных appl_info
         
         
         ;2.02-если абонент не всписке то периодически еепром прописывался нулями
         ;	сделал что если ноль записан то уже не пишется
         
         ;2.01-введена индикация серийного номера
         
         ;V 2.0
         ;c непрерывной генерацией ключей
         ;модернизация обмена с альтерой
         ;переделано на считывание полного пакета по приему
         
         
         
          .equ ver_zeleza=1	;for CAM
         
         ;21-06-2005 
         ;Программа декодера для САМ модуля САМ2
         ;Версия 
         ;Устройство ATMega32
         ;Кварц - внутренний 8 МГц
         
         ;при программировании установить cksel[3:0]=0100b;SUT[1:0]=00b boden=0
         
         
         ;Изменился прием служебного пакета: Принимаем в подпрограммах.
         
          .include "m32def.inc"
         ;***************************************************************************
         ;* A P P L I C A T I O N   N O T E   F O R   T H E   A V R   F A M I L Y
         ;* 
         ;* Number		        :AVR000
         ;* File Name		    :"m32def.inc"
         ;* Title		        :Register/Bit Definitions for the ATmega32
         ;* Date                 :99.08.25
         ;* Version              :1.00
         ;* Support telephone	:+47 72 88 43 88 (ATMEL Norway)
         ;* Support fax		    :+47 72 88 43 99 (ATMEL Norway)
         ;* Support E-mail	    :avr@atmel.no
         ;* Target MCU		    :ATmega32
         ;*
         ;* DESCRIPTION
         ;* When including this file in the assembly program file, all I/O register	
         ;* names and I/O register bit names appearing in the data book can be used.
         ;* In addition, the six registers forming the three data pointers X, Y and
         ;* Z have been assigned names XL - ZH. Highest RAM address for Internal 
         ;* SRAM is also defined 
         ;*
         ;* The Register names are represented by their hexadecimal address.
         ;* 
         ;* The Register Bit names are represented by their bit number (0-7).
         ;* 
         ;* Please observe the difference in using the bit names with instructions
         ;* such as "sbr"/"cbr" (set/clear bit in register) and "sbrs"/"sbrc" 
         ;* (skip if bit in register set/cleared). The following example illustrates
         ;* this:
         ;* 
         ;* in	r16,PORTB		;read PORTB latch
         ;* sbr	r16,(1<<PB6)+(1<<PB5)	;set PB6 and PB5 (use masks, not bit#)
         ;* out  PORTB,r16		;output to PORTB
         ;*
         ;* in	r16,TIFR		;read the Timer Interrupt Flag Register
         ;* sbrc	r16,TOV0		;test the overflow flag (use bit#)
         ;* rjmp	TOV0_is_set		;jump if set
         ;* ...				;otherwise do something else
         ;***************************************************************************
         
         ;***** Specify Device
          .device ATmega32
         
         ;***** I/O Register Definitions
          .equ	SREG	=$3f
          .equ	SPH	    =$3e
          .equ	SPL	    =$3d
          .equ	OCR0	=$3c
          .equ	GIMSK	=$3b		; For compatibility, keep both names until further
          .equ	GICR	=$3b		; new name for GIMSK
          .equ	GIFR	=$3a
          .equ	TIMSK	=$39
          .equ	TIFR	=$38
          .equ	SPMCR	=$37
          .equ    TWCR    =$36
          .equ    MCUCR   =$35
          .equ    MCUSR   =$34		; For compatibility, 
          .equ    MCUCSR  =$34		; keep both names until further
          .equ	TCCR0	=$33
          .equ	TCNT0	=$32
          .equ    OSCCAL  =$31
          .equ    SFIOR   =$30
          .equ	TCCR1A	=$2f
          .equ	TCCR1B	=$2e
          .equ	TCNT1H	=$2d
          .equ	TCNT1L	=$2c
          .equ	OCR1AH	=$2b
          .equ	OCR1AL	=$2a
          .equ	OCR1BH	=$29
          .equ	OCR1BL	=$28
          .equ	ICR1H	=$27
          .equ	ICR1L	=$26
          .equ	TCCR2	=$25
          .equ	TCNT2	=$24
          .equ	OCR2	=$23
          .equ	ASSR	=$22
          .equ	WDTCR	=$21
          .equ    UBRRH   =$20		;  Note! UCSRC equals UBRRH
          .equ	EEARH	=$1f
          .equ	EEARL	=$1e
          .equ	EEDR	=$1d
          .equ	EECR	=$1c
          .equ	PORTA	=$1b
          .equ	DDRA	=$1a
          .equ	PINA	=$19
          .equ	PORTB	=$18
          .equ	DDRB	=$17
          .equ	PINB	=$16
          .equ	PORTC	=$15
          .equ	DDRC	=$14
          .equ	PINC	=$13
          .equ	PORTD	=$12
          .equ	DDRD	=$11
          .equ	PIND	=$10
          .equ	SPDR	=$0f
          .equ	SPSR	=$0e
          .equ	SPCR	=$0d
          .equ	UDR	    =$0c
          .equ	UCSRA	=$0b
          .equ	UCSRB	=$0a
          .equ	UCSRC	=$20		;  Note! UCSRC equals UBRRH
          .equ	UBRRL	=$09
          .equ	ACSR	=$08
          .equ    ADMUX   =$07
          .equ    ADCSR   =$06
          .equ    ADCH    =$05
          .equ    ADCL    =$04
          .equ    TWDR    =$03
          .equ    TWAR    =$02
          .equ    TWSR    =$01
          .equ    TWBR    =$00
         
         
         
         ;***** Bit Definitions
         ;GIMSK
          .equ	INT1	=7
          .equ	INT0	=6
          .equ	INT2	=5
          .equ	IVSEL	=1		; interrupt vector select
          .equ	IVCE	=0		; interrupt vector change enable
         
         ;GIFR
          .equ	INTF1	=7
          .equ	INTF0	=6
          .equ	INTF2	=5
         
         ;TIMSK
          .equ    TOIE0   =0
          .equ    OCIE0   =1
          .equ    TOIE1   =2
          .equ    OCIE1B  =3
          .equ    OCIE1A  =4
          .equ    TICIE1  =5
          .equ    TOIE2   =6
          .equ    OCIE2   =7
         
         ;TIFR
          .equ    TOV0    =0
          .equ    OCF0    =1
          .equ    TOV1    =2
          .equ    OCF1B   =3
          .equ    OCF1A   =4
          .equ    ICF1    =5
          .equ    TOV2    =6
          .equ    OCF2    =7
         
         ;SPMCR
          .equ	SPMIE	=7
          .equ	ASB	=6
          .equ 	RWWSB	=6
          .equ	ASRE	=4
          .equ 	RWWSRE	=4
          .equ	BLBSET	=3
          .equ	PGWRT	=2
          .equ	PGERS	=1
          .equ	SPMEN	=0
         
         ;MCUCR
          .equ    SE      =7
          .equ    SM2     =6
          .equ    SM1     =5
          .equ    SM0     =4
          .equ    ISC11   =3
          .equ    ISC10   =2
          .equ    ISC01   =1
          .equ    ISC00   =0
         
         ;MCUCSR
          .equ	JTD     =7	
          .equ    ISC2    =6
          .equ    EIH     =5
          .equ    JTRF    =4	
          .equ    WDRF    =3
          .equ    BORF    =2
          .equ    EXTRF   =1
          .equ    PORF    =0
         
         ;TCCR0
          .equ    FOC0    =7
          .equ    PWM0    =6
          .equ	COM01	=5
          .equ	COM00	=4
          .equ	CTC0	=3
          .equ	CS02	=2
          .equ	CS01	=1
          .equ	CS00	=0
         
         ;TCCR1A
          .equ	COM1A1	=7
          .equ	COM1A0	=6
          .equ	COM1B1	=5
          .equ	COM1B0	=4
          .equ	FOC1A	=3
          .equ	FOC1B	=2
          .equ	PWM11	=1
          .equ	PWM10	=0
         
         ;TCCR1B
          .equ	ICNC1	=7
          .equ	ICES1	=6
          .equ	CTC11	=4
          .equ	CTC10	=3
          .equ	CTC1	=3		; Obsolete - Included for backward compatibility
          .equ	CS12	=2
          .equ	CS11	=1
          .equ	CS10	=0
         
         ;TCCR2
          .equ	FOC2	=7
          .equ    PWM2    =6
          .equ    COM21   =5
          .equ    COM20   =4
          .equ    CTC2    =3
          .equ    CS22    =2
          .equ    CS21    =1
          .equ    CS20    =0
         
         ;SFIOR
          .equ    RPDD    =7
          .equ    RPDC    =6
          .equ    RPDB    =5
          .equ    RPDA    =4
          .equ    ACME    =3
          .equ    PUD     =2
          .equ	PSR2	=1
          .equ	PSR10	=0
         
         ;WDTCR
          .equ	WDTOE	=4
          .equ	WDE	=3
          .equ	WDP2	=2
          .equ	WDP1	=1
          .equ	WDP0	=0
         
         ;EECR
          .equ    EERIE   =3
          .equ	EEMWE	=2
          .equ	EEWE	=1
          .equ	EERE	=0
         
         ;PORTA
          .equ	PA7	=7
          .equ	PA6	=6
          .equ	PA5	=5
          .equ	PA4	=4
          .equ	PA3	=3
          .equ	PA2	=2
          .equ	PA1	=1
          .equ	PA0	=0
         
         ;DDRA
          .equ	DDA7	=7
          .equ	DDA6	=6
          .equ	DDA5	=5
          .equ	DDA4	=4
          .equ	DDA3	=3
          .equ	DDA2	=2
          .equ	DDA1	=1
          .equ	DDA0	=0
         
         ;PINA
          .equ	PINA7	=7
          .equ	PINA6	=6
          .equ	PINA5	=5
          .equ	PINA4	=4
          .equ	PINA3	=3
          .equ	PINA2	=2
          .equ	PINA1	=1
          .equ	PINA0	=0
         
         ;PORTB
          .equ	PB7	=7
          .equ	PB6	=6
          .equ	PB5	=5
          .equ	PB4	=4
          .equ	PB3	=3
          .equ	PB2	=2
          .equ	PB1	=1
          .equ	PB0	=0
         
         ;DDRB
          .equ	DDB7	=7
          .equ	DDB6	=6
          .equ	DDB5	=5
          .equ	DDB4	=4
          .equ	DDB3	=3
          .equ	DDB2	=2
          .equ	DDB1	=1
          .equ	DDB0	=0
         
         ;PINB
          .equ	PINB7	=7
          .equ	PINB6	=6
          .equ	PINB5	=5
          .equ	PINB4	=4
          .equ	PINB3	=3
          .equ	PINB2	=2
          .equ	PINB1	=1
          .equ	PINB0	=0
         
         ;PORTC
          .equ	PC7	=7
          .equ	PC6	=6
          .equ	PC5	=5
          .equ	PC4	=4
          .equ	PC3	=3
          .equ	PC2	=2
          .equ	PC1	=1
          .equ	PC0	=0
         
         ;DDRC
          .equ	DDC7	=7
          .equ	DDC6	=6
          .equ	DDC5	=5
          .equ	DDC4	=4
          .equ	DDC3	=3
          .equ	DDC2	=2
          .equ	DDC1	=1
          .equ	DDC0	=0
         
         ;PINC
          .equ	PINC7	=7
          .equ	PINC6	=6
          .equ	PINC5	=5
          .equ	PINC4	=4
          .equ	PINC3	=3
          .equ	PINC2	=2
          .equ	PINC1	=1
          .equ	PINC0	=0
         
         ;PORTD
          .equ	PD7	=7
          .equ	PD6	=6
          .equ	PD5	=5
          .equ	PD4	=4
          .equ	PD3	=3
          .equ	PD2	=2
          .equ	PD1	=1
          .equ	PD0	=0
         
         ;DDRD
          .equ	DDD7	=7
          .equ	DDD6	=6
          .equ	DDD5	=5
          .equ	DDD4	=4
          .equ	DDD3	=3
          .equ	DDD2	=2
          .equ	DDD1	=1
          .equ	DDD0	=0
         
         ;PIND
          .equ	PIND7	=7
          .equ	PIND6	=6
          .equ	PIND5	=5
          .equ	PIND4	=4
          .equ	PIND3	=3
          .equ	PIND2	=2
          .equ	PIND1	=1
          .equ	PIND0	=0
         
         ;UCSRA
          .equ	RXC	=7
          .equ	TXC	=6
          .equ	UDRE	=5
          .equ	FE	=4
          .equ	OR	=3		; old name kept for compatibilty
          .equ	DOR	=3
          .equ	PE	=2
          .equ	U2X	=1
          .equ	MPCM	=0
         
         ;UCSRB
          .equ	RXCIE	=7
          .equ	TXCIE	=6
          .equ	UDRIE	=5
          .equ	RXEN	=4
          .equ	TXEN	=3
          .equ	CHR9	=2		; old name kept for compatibilty
          .equ	UCSZ2	=2
          .equ	RXB8	=1
          .equ	TXB8	=0
         
         ;UCSRC
          .equ	URSEL	=7
          .equ	UMSEL	=6
          .equ	UPM1	=5
          .equ	UPM0	=4
          .equ	USBS	=3
          .equ	UCSZ1	=2
          .equ	UCSZ0	=1
          .equ	UCPOL	=0
         		
         ;SPCR
          .equ	SPIE	=7
          .equ	SPE	=6
          .equ	DORD	=5
          .equ	MSTR	=4
          .equ	CPOL	=3
          .equ	CPHA	=2
          .equ	SPR1	=1
          .equ	SPR0	=0
         
         ;SPSR
          .equ	SPIF	=7
          .equ	WCOL	=6
          .equ	SPI2X	=0
         
         ;ACSR
          .equ	ACD	=7
          .equ    ACBG    =6
          .equ	ACO	=5
          .equ	ACI	=4
          .equ	ACIE	=3
          .equ	ACIC	=2
          .equ	ACIS1	=1
          .equ	ACIS0	=0
         
         ;ADMUX
          .equ    REFS1   =7
          .equ    REFS0   =6
          .equ    ADLAR   =5
          .equ    MUX4    =4
          .equ    MUX3    =3
          .equ    MUX2    =2
          .equ    MUX1    =1
          .equ    MUX0    =0
         
         ;ADCSR
          .equ    ADEN    =7
          .equ    ADSC    =6
          .equ    ADFR    =5
          .equ    ADIF    =4
          .equ    ADIE    =3
          .equ    ADPS2   =2
          .equ    ADPS1   =1
          .equ    ADPS0   =0
         
         ; TWCR
          .equ    TWINT   =7
          .equ    TWEA    =6
          .equ    TWSTA   =5
          .equ    TWSTO   =4
          .equ    TWWC    =3
          .equ    TWEN    =2
          .equ    TWI_TST =1  ;Present in core test mode only. Write Only.
          .equ    TWIE    =0
         
         ; TWAR
          .equ    TWGCE   =0
         
         ;ASSR
          .equ    AS2     =3
          .equ    TCN2UB  =2
          .equ    OCR2UB  =1
          .equ    TCR2UB  =0
         
          .def	XL	=r26
          .def	XH	=r27
          .def	YL	=r28
          .def	YH	=r29
          .def	ZL	=r30
          .def	ZH	=r31
         
          .equ 	FLASHEND	=$3FFF
          .equ 	E2END	    =$3FF
          .equ	RAMEND	    =$85F
         
         			;  byte groups
         			;  /\/--\/--\/--\ 
          .equ 	SMALLBOOTSTART	=0b11111100000000  ;($3F00) smallest boot block is 256W
          .equ 	SECONDBOOTSTART	=0b11111000000000  ;($3E00) 2'nd boot block size is 512W
          .equ 	THIRDBOOTSTART	=0b11110000000000  ;($3C00) third boot block size is 1KW
          .equ 	LARGEBOOTSTART	=0b11100000000000  ;($3800) largest boot block is 2KW
          .equ 	BOOTSTART	=THIRDBOOTSTART  ;OBSOLETE!!! kept for compatibility
          .equ	PAGESIZE	=64     ;number of WORDS in a page
         
         
          .equ	INT0addr=$002	; External Interrupt0 Vector Address
          .equ	INT1addr=$004	; External Interrupt1 Vector Address
          .equ	INT2addr=$006	; External Interrupt2 Vector Address
          .equ	OC2addr =$008	; Output Compare2 Interrupt Vector Address
          .equ	OVF2addr=$00a	; Overflow2 Interrupt Vector Address
          .equ	ICP1addr=$00c	; Input Capture1 Interrupt Vector Address
          .equ	OC1Aaddr=$00e	; Output Compare1A Interrupt Vector Address
          .equ	OC1Baddr=$010	; Output Compare1B Interrupt Vector Address
          .equ	OVF1addr=$012	; Overflow1 Interrupt Vector Address
          .equ	OC0addr =$014	; Output Compare0 Interrupt Vector Address
          .equ	OVF0addr=$016	; Overflow0 Interrupt Vector Address
          .equ	SPIaddr =$018	; SPI Interrupt Vector Address
          .equ	URXCaddr=$01a	; USART Receive Complete Interrupt Vector Address
          .equ	UDREaddr=$01c	; USART Data Register Empty Interrupt Vector Address
          .equ	UTXCaddr=$01e	; USART Transmit Complete Interrupt Vector Address
          .equ	ADCCaddr=$020	; ADC Interrupt Vector Address
          .equ	ERDYaddr=$022	; EEPROM Interrupt Vector Address
          .equ	ACIaddr =$024	; Analog Comparator Interrupt Vector Address
          .equ    TWSIaddr=$026   ; Irq. vector address for Two-Wire Interface
          .equ	SPMRaddr=$028	; Store Program Memory Ready Interrupt Vector Address
         
         
         
         
         ;порты SPI интерфейса. В новой версии платы разменял сигналы DI_SPI и DO_SPI !!!
         
          .equ	di_spi		=	pinc		;данные вход (прием)
          .equ	di_spib		=	1
          .equ	str_a_spi	=	portc		;строб загрузки адреса
          .equ	str_a_spib	=	3
          .equ	strWR_spi	=	portc		;строб записи
          .equ	strWR_spib	=	2
          .equ	do_spi		=	portc		;данные выход (передача)
          .equ	do_spib		=	4
          .equ	clkspi		=	portc		;такты
          .equ	clkspib		=	0
         
         ;Сигналы последовательного канала. Применяется для вычитывания пакета
         ;.equ	RdClkSer	=	portd		;такты чтения
         ;.equ	RdClkSerb	=	7
         ;.equ	SerialOut	=	pina		;читаемые данные
         ;.equ	SerialOutb	=	7
         ;.equ 	NewPack		=	pinc		;признак наличия пакета
         ;.equ 	NewPackb	=	7
         
         ;сигнальные порты 
         ;portC
          .equ	SR_pin		=	5
          .equ	HC_pin		=	6		;Признак занятости модуля HOSTom (1-занят, 0-свободен)
         ;portD
          .equ	ZAHVAT		=	3		;int1
         
         ;portA
          .equ	Cmd_res		=7	;Cmd reset
          .equ	DA_out		= 6	;признак переданных данных (признак окончания 
         				;операции передачи или приема)
          .equ	DA_pin		=	5	;признак Есть данные на передачу
          .equ	FR_pin		=	4
          .equ read_end		=	3
         
         
         ;порты загрузки ALTERA
         ;portA
          .equ	nConfig		=	0	;войти в режим конфигурирования
          .equ	DCLK		=	1	;такты
          .equ	DATA0		=	2	;данные
         
         ;portB
          .equ	IREQ		=0	;задержка чтения PCMCIA на время загрузки ALTERA
         ;portD
          .equ	CONF_DONE	=	5	;конец конфигурирования
          .equ	nStatus		=	4	;готовность к конфигурированию
         
         
         ;остальные порты
         ;portd
          .equ	led1			=	2
         
         ;.equ	testpin	=	portb	;пин для различных целей, для проверок
         ;.equ	testpinb=	4	;noga=44
         
         
         
         
         
         ;ячейки ОЗУ
          .equ	my_tc_id	= $60	;ID моего транспортного соединения
          .equ	tc_id		= $61	;идентификатор TPDU канала
          .equ	TPDU_tag	= $62	;принятый/передаваемый тэг
          .equ	TPDU_size	= $63	;кол-во переданных байт
          .equ	TPDU_pntr	= $64	;указатель на каком байте остановлена передача
          .equ	TPDU_size_rx	= $65	;кол-во принятых байт
          .equ	TPDU_pntr_rx	= $66	;указатель на каком байте остановлена загрузка
          .equ	RESURSE 	= $67	;ID моего обслуживаемого ресурса, 4 байта
          .equ	SS_NUM	= RESURSE+4	;ID номер текущей сессии, 2 байта
          .equ	SS_NUM1	= SS_NUM+2	;ID сессии к Resurce Manager, 2 байта
          .equ	SS_NUM2	= SS_NUM1+2	;ID сессии к Application Information, 2 байта
          .equ	SS_NUM3	= SS_NUM2+2	;ID сессии к Conditional Access Support, 2 байта
         
          .equ	TPDU_buf = SS_NUM3+2	;буфер для сборки SPDU блоков, 128 байт
          .equ	APDU_buf	=	TPDU_buf+4
         
          .equ	num_pids = APDU_buf+256;128	;кол-во найденных PID номеров
         
         ;.equ	pid_buf	=num_pids+1	;буфер для накопления найденных PID, 16 байт
         
         
         
         
         ;константы
          .equ	buf_size	=	128		;размер буфера в альтере
         
         
         ;TPDU's
          .equ	T_sb		=	$80
          .equ	T_rcv		=	$81
          .equ	Tcreate_t_c	=	$82			;a.4.1.4
          .equ	Tc_t_c_reply	=	$83			;a.4.1.5
          .equ	T_delete	=	$84			;a.4.1.6
          .equ	Td_t_c_reply	=	$85			;a.4.1.7
          .equ	Trequest_t_c	=	$86			;a.4.1.8
          .equ	Tnew_t_c	=	$87			;a.4.1.9
          .equ	Tt_c_error	=	$88			;a.4.1.10
          .equ	Tdata_last	=	$a0
          .equ	Tdata_more	=	$a1
         
         
         ;SPDU's
          .equ	Ts_num		=	$90		;Tsession_number
          .equ	To_s_req	=	$91		;Topen_session_request
          .equ	To_s_resp	=	$92		;Topen_session_response
          .equ	Tcr_ses		=	$93		;Tcreate_session
          .equ	Tcr_ses_res	=	$94		;Tcreate_session_response
          .equ	Tcl_ses		=	$95		;Tclose_session
          .equ	Tcl_ses_res	=	$96		;Tclose_session_response
         
         
         
          .def	s_reg			=	R3
         
          .def	tl_flag		=	R4		;флаг состояния схемы
         ;расписание битов флага:
         ;0  запас
         ;1  запас
         ;2  производится прием данных и склейка
         ;3  TPDU успешно принят
         ;4  кроме TPDU приняты еще и данные
         ;5  производится нарезка блоков даных по передаче
         ;6  ждем пока HOST вычитает данные
         ;7  имеются данные для передачи хосту, нужно их передать
         
         
          .def	appl_flag		=	R5
         ;0  Link Layer пройден, инициализация завершена
         ;1  Transport Layer пройден, соединение установлено, номер tc_id хранится в TC_ID[0]
         ;2  Session Layer пройден, сессия установлена, номер сессии хранится в SS_NUM[1:0]
         ;3  сообщаю уровню, что данные успешно переданы
         ;4  запас
         ;5  запас
         ;6  Приняты данные от хоста
         ;7  Приказ передать мой APDU
         
         
          .def	service_flag	=	R6
         ;0  приказ открыть сессию к Resurce Manager
         ;1  приказ открыть сессию к Application Information
         ;2  приказ открыть сессию к Conditional Access Support
         ;3  запас
         ;4  сессия к Resurce Manager открыта
         ;5  сессия к Application Information открыта
         ;6  сессия к Conditional Access Support открыта
         ;7  запас
         
         
         
          .org $0
000000 940c 3f00 	jmp SMALLBOOTSTART	;rjmp start
         
          .db ver_zeleza,$ff
000002 ff01
          poz_ver_po:
          .db ver_po, $ff
000003 ff02
         
         
          .org INT1addr
000004 c495      	rjmp prm_data	;prishel paket ot tunera
         
          .org INT2addr	;=$006	; External Interrupt2 po sbrosu
000006 cff9      	rjmp 0
         
         
         
         ;-----------------------------------------------------------------------------
         ;начало программного кода
         ;-----------------------------------------------------------------------------
          start:
000007 e50f      	ldi r16,low(ramend)
000008 bf0d      	out spl,r16
000009 e008      	ldi r16,high(ramend)
00000a bf0e      	out sph,r16
00000b 94f8      	cli
         	;------------------- Настройка UART ---------------------------	
00000c 2700      	clr r16
00000d bd00      	out UBRRH,r16				;Set baud rate 38400
00000e e00c      	ldi r16,12				;38.400 при 8МГц тактовой
00000f b909      	out UBRRL,r16
         
000010 2700      	clr r16
000011 b90b      	out UCSRA,r16
         
000012 e108      	ldi r16,(1<<RXEN)+(1<<TXEN)	;Enable Receiver and Transmitter
000013 b90a      	out UCSRB,r16
         
000014 e806      	ldi r16,(1<<URSEL)+(1<<UCSZ1)+(1<<UCSZ0)	;8,1,n
000015 bd00      	out UCSRC,r16
         
         
         ;~ порты и загрузка альтеры ~~~~~~~~~~~~~~~~~~~~~~~~~~~~~~~~~~~~~~~~~~
         	;a
000016 e307      	ldi r16,(1<<nConfig)+(1<<DCLK)+(1<<DATA0)+(1<<da_pin)+(1<<fr_pin)
000017 bb0a      	out ddra,r16
000018 e101      	ldi r16,(1<<nConfig)+(1<<fr_pin)
000019 bb0b      	out porta,r16
         
         
         	;c
00001a e10d      	ldi r16,(1<<str_a_spib)+(1<<strWR_spib)+(1<<do_spib)+(1<<clkspib)
00001b bb04      	out ddrc,r16
00001c 2700      	clr r16
00001d bb05      	out portc,r16
         
         	;d
00001e e304      	ldi r16,(1<<LED1)+(1<<Conf_done)+(1<<nStatus);+(1<<RdClkSerb)
00001f bb02      	out portd,r16
000020 e004      	ldi r16,(1<<LED1);+(1<<RdClkSerb)
000021 bb01      	out ddrd,r16
         
000022 d564      	rcall altera_configure
         
         ;~~~~~~~~~~~~~~~~~~~~~~~~~~~~~~~~~~~~~~~~~~~~~~~~~~~~~~~~~~~~~~~~~~~~~
         
000023 ea00      	ldi r16,(1<<int1)+(1<<int2)
000024 bf0b      	out gicr,r16
         
         
000025 e408      	ldi r16,(1<<isc11)+(1<<isc2)
000026 bf05      	out mcucr,r16			;INT1-срез, INT2-front sbrosa
         
000027 2700      	clr r16
000028 9300 0064 	sts TPDU_pntr,r16			;обнуляю указатель буфера
00002a 9300 0063 	sts tpdu_size,r16
00002c 9300 0062 	sts tpdu_tag,r16
00002e 9300 0061 	sts tc_id,r16
000030 9300 0060 	sts my_tc_id,r16
         
000032 2444      	clr tl_flag
000033 2455      	clr appl_flag
000034 2466      	clr service_flag
         
         
000035 98dd      	cbi porta,DA_pin		;занять модуль, сбросить флаги
000036 98dc      	cbi porta,FR_pin
000037 d51b      	rcall spi_addr3
000038 e001      	ldi r16,1			;очистить флаги WE и RE
000039 e012      	ldi r17,2
00003a d4f6      	rcall spi_pdbyte
00003b 2700      	clr r16
00003c e010      	ldi r17,0
00003d d4f3      	rcall spi_pdbyte
00003e 2700      	clr r16
00003f d4f1      	rcall spi_pdbyte
         
000040 9adc      	sbi porta,FR_pin		;отпустить модуль
000041 d511      	rcall spi_addr3
         
000042 d426      	rcall int_razr
         
         ;;;;;;;;;;;;;;;;;;;;;;;;;;;;;;;;;;;;;;;;;;;;;;;;;;;;;;;;;;;;;;;;;;;;;;;;;;;
         
000043 9ac0      	sbi portb,IREQ				;отпускаю модуль
000044 9478      	sei
         
000045 e005      	ldi r16,5
000046 2e90      	mov r9,r16
         
         
000047 e501      ldi r16,'Q'
000048 d1fd      rcall ws
         
         
         
         ;--------------- Вывод служебного текста -------------------------------------
         ;	ldi zl,low(txtIniCam*2)     ;print
         ;	ldi zh,high(txtIniCam*2)
         ;	rcall print
         ;------------------------------------------------------------------------------
         
000049 c045      	rjmp inidecoder			;инициализируем декодер
         
         ;------------------------------------------------------------------------------------------------
         ;
         ;Самый верхний уровень программы, Application Layer
         ;
         ;Связь с подлежащими уровнями производится посредством флага [apl_flag]
         ; а также буфера SPDU_buf и
         ;указателя его размера TPDU_SIZE
         ;
         ;------------------------------------------------------------------------------------------------
         ;
         
          application_layer:
         
00004a 99b2      	sbic pinb,2	;pin reseta
00004b cfbb      	rjmp start
         
00004c 99cf      	sbic pina,Cmd_res	;ne proveril
00004d cfb9      	rjmp start
         
         
         
00004e d062      	rcall dekoder
         			;При занятом модуле только обрабатываем только
         			; пакеты декодера
         
          application_layer2:
         ;ldi r16,'&'
         ;rcall ws
         
00004f fc46      	sbrc tl_flag,6		;HOST вычитал данные?
000050 d4d8      	rcall tstTXdnn		;если нет-то ожидаем и работает только декодер
         
000051 fc46      	sbrc tl_flag,6			
000052 cff7      	rjmp application_layer
         
         ;ldi r16,'#'
         ;rcall ws
000053 d2c3      	rcall session_layer
         
000054 fe52      	sbrs appl_flag,2			;установление сессии
000055 c254      	rjmp start_session_cmd
         
         ;ldi r16,'3'
         ;rcall ws
         
000056 fe56      	sbrs appl_flag,6			;пришли данные от хоста
000057 cff2      	rjmp application_layer
         
         
         ;----------------------------------------
         
         ;--------------- Вывод служебного текста -------------------------------------
         ;	ldi zl,low(NewDannFromHost*2)     ;print
         ;	ldi zh,high(NewDannFromHost*2)
         ;	rcall print
         ;------------------------------------------------------------------------------
         ;ldi r16,'*'
         ;rcall ws
         
000058 94e8      	clt
000059 f856      	bld appl_flag,6
         
00005a e0f0      	ldi zh,high(apdu_buf)			;смотрю что мне пришло
00005b e7e7      	ldi zl,low(apdu_buf)
         
00005c 9101      	ld r16,z+
00005d 9101      	ld r16,z+
00005e 3800      	cpi r16,$80
00005f f009      	breq al_123	;Res. Manager, Appl. Information, Conditional Access Support
         
         ;rcall wb
         ;ldi r16,'-'
         ;rcall ws
         
         ;	cpi r16,$84
         ;	breq al_45			;Host Control, Date-Time
         ;	cpi r16,$88
         ;	breq al_6				;MMI
000060 c248      	rjmp application_layer_exit
         
         
          al_123:
         
         ;ldi r16,'A'
         ;rcall ws
         
000061 8100      	ld r16,z
         
000062 3100      	cpi r16,$10				;Tprofile_enq
000063 f071      	breq al_1_1
         
000064 3102      	cpi r16,$12				;Tprofile_change
000065 f081      	breq al_1_2
         
000066 3101      	cpi r16,$11				;Tprofile_reply
000067 f091      	breq al_1_3
         
000068 3200      	cpi r16,$20				;Tapplication_info
000069 f099      	breq al_2_1
         
00006a 3202      	cpi r16,$22				;Tenter_menu
00006b f0d1      	breq al_2_2
         
00006c 3300      	cpi r16,$30				;Tca_info_enq
00006d f0e1      	breq al_3_1
         
00006e 3302      	cpi r16,$32				;Tca_pmt
00006f f009      	breq all_3_2
         
000070 c238      	rjmp application_layer_exit
         
000071 c1f1      all_3_2:	rjmp al_3_2
         
         
         ;----------реакция на запросы------------------
         
          al_1_1:			;послать в ответ Tprofile со списком моих ресурсов
         ;ldi r16,'1'
         ;call ws
000072 e0fb      	ldi zh,high(profile_reply*2)
000073 e9ea      	ldi zl,low(profile_reply*2)
000074 d243      	rcall load_apdu
         
000075 c233      	rjmp application_layer_exit
         
         
          al_1_2:
         ;ldi r16,'2'
         ;call ws
000076 e0fb      	ldi zh,high(profile_enqury*2)
000077 e9e4      	ldi zl,low(profile_enqury*2)
000078 d23f      	rcall load_apdu
000079 c22f      	rjmp application_layer_exit
         
         
          al_1_3:				;получил ответ от хоста со списком ресурсов
         ;ldi r16,'3'
         ;call ws
00007a 94e8      	clt
00007b f852      	bld appl_flag,2
00007c c22d      	rjmp start_session_cmd
         
          al_2_1:
         ;ldi r16,'4'
         ;call ws
00007d e0fb      	ldi zh,high(appl_info*2)
00007e eae8      	ldi zl,low(appl_info*2)
00007f d247      	rcall load_apdu_num
         
          al_2_1_:
         ;ldi r16,'5'
         ;call ws
000080 d296      	rcall session_layer		;подождать пока передастся информация
000081 fc57      	sbrc appl_flag,7
000082 cffd      	rjmp al_2_1_
         
000083 94e8      	clt
000084 f852      	bld appl_flag,2
000085 c224      	rjmp start_session_cmd
         
         
          al_2_2:					;передать информацию о моем софте
         ;ldi r16,'6'
         ;call ws
000086 e0fb      	ldi zh,high(appl_info*2)
000087 eae8      	ldi zl,low(appl_info*2)
000088 d23e      	rcall load_apdu_num
000089 c21f      	rjmp application_layer_exit
         
          al_3_1:
         ;ldi r16,'7'
         ;call ws
00008a e0fb      	ldi zh,high(ca_info*2)
00008b ecea      	ldi zl,low(ca_info*2)
00008c d22b      	rcall load_apdu
00008d 9892      	cbi portd,led1			;инициализация пройдена
         
         ;	ldi r16,0x01	;Разрешаю прерывание от таймера 0 (опрос есть ли пакет)
         ;	out TIMSK,r16
         
00008e c000      	rjmp inidecoder			;инициализируем декодер
         
         ;;;;;;;;;;;;;;;;;;;;;;;;;;;;;;;;;;;;;;;;;;;;;;;;;;;;;;;;;;;;;;;;;;;;;;;;;;;
         
          .include "cam_dec5.avr"		; Включаем программу декодера
         ;mac=(inversija sernoH)*32768 + (serno-1)*2
         
         ;
         ; Переделaл все с линейной программы в подпрограммы
         
         
          .equ ver_po =2
          .equ copyflash=$3f20
          .equ write_page=$3f70
          .equ tstks_flash=$3fc8
         
          .equ mac=$3ffc
          .equ mach=$3ffe
          .equ nomver_zeleza=mac+1
          .equ endsek=123
          .equ N_ciklovyh=3;количество принятых цикловых пакетов,и не принятых
         ;разрешительных после которых декодирование отключается
         
          .equ pozkl=(26)
         
          .cseg
         
          .equ tekstvol=num_pids+1;18;16????????????
         ;.equ tekstvol=pid_buf+64;18;16????????????
          .equ kluchi_dekoderu=tekstvol+1	;ds 16
         
          .equ kluch1=kluchi_dekoderu+17	;konveernyj registr(novyj kluch zapominaetsja
         				;staryj ispolzuetsja
          .equ shum2=kluch1+1;db
         
          .equ config2=shum2+1;db
          .equ config1=config2+1;db
         
          .equ N_sektora=config1+1;db
          .equ tek_ver_po =N_sektora+1
         
          .equ razreshit=tek_ver_po+1	;ds 128 byte
         
          .equ bufprog=razreshit+129	;ds 129	??????	нельзя трогать буфера!!!!
         
          .equ bufpaket=bufprog+129	;ds 188
         
          .equ tip=bufpaket+188	;db
          .equ count_ciklovogo_paketa=tip+1
         
          .equ pid_buf =count_ciklovogo_paketa+1;num_pids+1;буфер для накопления
         ; найденных PID, 16 байт???
         
          .equ bbb=pid_buf+32
         
         
         
         ;flagi
         ;.def fl_pmcikl=r12
         ;.equ fl_pmciklb=1,0		;schetchik priema ciklovogo paketa
         
         
          .def nado_obnov=r12
          .equ nado_obnovb=0		; nado obnovit flash
         
         
         
         
         ;.def N_byta=r10
         
         ;;;;;;;;;;;;;;;;;;;;;;;;;;;;;;;;;;;;;;;;;;;;;;;;;;;;;;;;;;;;;;;;;;;;;;;;;;;
         ;START PROGRAM CODE
         ;;;;;;;;;;;;;;;;;;;;;;;;;;;;;;;;;;;;;;;;;;;;;;;;;;;;;;;;;;;;;;;;;;;;;;;;;;;
         
          inidecoder:
         
00008f 24cc      	clr r12			;flagi
         
000090 92c0 0178 	sts tekstvol,r12
000092 e003      	ldi r16,N_ciklovyh
000093 9300 034f 	sts count_ciklovogo_paketa,r16
         
         ;ldi r16,'w'
         ;rcall ws
         
000095 e0f1      	ldi zh,high(kluchi_dekoderu)
000096 e7e9      	ldi zl,low(kluchi_dekoderu)
000097 e090      	ldi r25,high(e_kluchi_dekoderu)
000098 e082      	ldi r24,low(e_kluchi_dekoderu)
000099 e03f      	ldi r19,15
         
00009a 94f8      	cli
         
          copykluch:
00009b d4e0      	rcall mrd
00009c 9301      	st z+,r16
00009d 9601      	adiw r24,1
00009e 953a      	dec r19
00009f f7d9      	brne copykluch
         
0000a0 9100 017a 	lds r16,(kluchi_dekoderu+1)
         
0000a2 9300 018c 	sts config2,r16
         
         ;ldi r16,'&'
         ;call ws
         
0000a4 e110      	ldi r17,16
0000a5 e0f1      	ldi zh,high(kluchi_dekoderu+7)
0000a6 e8e0      	ldi zl,low(kluchi_dekoderu+7)
0000a7 e038      	ldi r19,8;15
         
          inidec:
0000a8 9101      	ld r16,z+
0000a9 d487      	rcall spi_pdbyte
0000aa 9513      	inc r17
0000ab 953a      	dec r19
0000ac f7d9      	brne inidec
         	
         ;	sbi portb,IREQ				;отпускаю модуль
         
0000ad 9478      	sei 
0000ae cf9b      	rjmp application_layer
         
         	;ret
         ;--------------------------------------------------------
         
         
          application_layer1:
         
         ;	pop r20
         ;	pop r19
         ;	pop r18
         ;	pop r17
         ;	pop r16
         
0000af 9478      	sei
         
         ;cbi testpin,testpinb	;пин для настройщика
         
0000b0 9508      	ret
         ;	rjmp application_layer
         
         ;;;;;;;;;;;;;;;;;;;;;;;;;;;;;;;;;;;;;;;;;;;;;;;;;;;;;;;;;;;;;;;;;;;;;;;;;;;
         
          dekoder:
         
         ;sbi testpin,testpinb	;пин для настройщика
         
0000b1 94f8      	cli					;запрещаем прерывания
         
         ;	push r16
         ;	push r17
         ;	push r18
         ;	push r19
         ;	push r20
         
         
0000b2 e014      	ldi r17,4
0000b3 d4a6      	rcall spi_pmbyte
0000b4 2f10      	mov r17,r16
0000b5 9488      	clc
0000b6 9507      	ror r16
0000b7 9505      	asr r16
         
0000b8 9130 0178 	lds r19,tekstvol
0000ba 1730      	cp r19,r16
0000bb f019      	breq old_stvol
         
0000bc 9300 0178 	sts tekstvol,r16
         ;rcall wb
         ;mov r16,r19
         ;rcall wb
         ;ldi r16,'s'
         ;call ws
         
0000be d120      	rcall zagruz_razreshen
         
          old_stvol:
0000bf 7011      	andi r17,$01
0000c0 f371      	breq application_layer1
         
         
         ;ldi r16,'p'
         ;rcall ws
         
         ;lds r16,num_pids
         ;rcall wb
         
         
0000c1 e015      	ldi r17,5;0;5		;prinjat paket dekoderu
0000c2 eb37      	ldi r19,183
0000c3 e0f2      	ldi zh,high(bufpaket+6);1);6)
0000c4 e9e8      	ldi zl,low(bufpaket+6);1);6)
         
          chitaempaket:
         
0000c5 d494      	rcall spi_pmbyte
         ;call wb
0000c6 9301      	st z+,r16
0000c7 9513      	inc r17
0000c8 953a      	dec r19
0000c9 f7d9      	brne chitaempaket
         
0000ca e0b2      	ldi xh,high(bufpaket+pozkl)
0000cb eaac      	ldi xl,low(bufpaket+pozkl)
0000cc 910c      	ld r16,x
0000cd 2e80      	mov r8,r16
         
         ;rcall wb
         ;ldi r16,'?'
         ;call ws
         
0000ce 9280 018b 	sts shum2,r8
0000d0 d15f      	rcall gen_shum2
         
0000d1 e0b2      	ldi xh,high(bufpaket+17)	;ver_po
0000d2 eaa3      	ldi xl,low(bufpaket+17)
0000d3 910c      	ld r16,x
0000d4 2702      	eor r16,r18	;tek_ver_po
0000d5 9300 018f 	sts tek_ver_po,r16
         
0000d7 e0f0      	ldi zh,high(poz_ver_po*2)
0000d8 e0e6      	ldi zl,low(poz_ver_po*2)
0000d9 95c8      	lpm		;ver_po kotoraja rabotaet
0000da 1600      	cp r0,r16
0000db f049      	breq raskrutka_paket0;pm_tip
         ;mov r16,r0
         ;rcall wb
         ;ldi r16,'w'
         ;call ws
         
0000dc e4f0      	ldi zh,$40	;$20*2
0000dd e0e6      	ldi zl,low(poz_ver_po*2)
0000de 95c8      	lpm
0000df 1600      	cp r0,r16
0000e0 f421      	brne raskrutka_paket0;pm_tip
         
0000e1 9468      	set
0000e2 f8c0      	bld nado_obnov,nado_obnovb
0000e3 c095      	rjmp new_prog
         
          raskruterrcrc:
0000e4 cfca      	rjmp application_layer1
         
         ;pm_tip:
         ;	ldi xh,high(bufpaket+29)
         ;	ldi xl,low(bufpaket+29)
         ;	ld r16,x
         ;
         ;	eor r16,r8
         ; 	com r16		;tip
         ;	sts tip,r16
         
          raskrutka_paket0:
         
         ;ldi r16,'v'
         ;call ws
0000e5 9100 0299 	lds r16,(bufpaket+7)
0000e7 700f      	andi r16,$0f
0000e8 ea1b      	ldi r17,171
0000e9 0f01      	add r16,r17
         
0000ea e0f2      	ldi zh,high(bufpaket)
0000eb e9e2      	ldi zl,low(bufpaket)
0000ec 2711      	clr r17
0000ed 0fe0      	add zl,r16
0000ee 1ff1      	adc zh,r17
0000ef 8140      	ld r20,z
0000f0 9150 029c 	lds r21,(bufpaket+10)
0000f2 2754      	eor r21,r20
         
0000f3 e930      	ldi r19,144
0000f4 e0f2      	ldi zh,high(bufpaket+27)
0000f5 eaed      	ldi zl,low(bufpaket+27)
         
          raskrutpaket:			;raskruchivaet tek paket
0000f6 2f14      	mov r17,r20
0000f7 2315      	and r17,r21
0000f8 2f21         	mov r18,r17
         
0000f9 e007      	ldi r16,7
          krutim3:
0000fa 9526      	lsr r18
0000fb 2712      	eor r17,r18
0000fc 950a      	dec r16
0000fd f7e1      	brne krutim3
         
0000fe 9516      	lsr r17
0000ff 1f44      	rol r20		;r20-shum
         ;ldi r16,' '
         ;rcall ws
000100 8100      	ld r16,z
000101 2704      	eor r16,r20
000102 9500      	com r16
000103 9301      	st z+,r16
         ;rcall wb
000104 953a      	dec r19
000105 f781      	brne raskrutpaket
         
000106 e83f      	ldi r19,143
000107 e0f2      	ldi zh,high(bufpaket+27)
000108 eaed      	ldi zl,low(bufpaket+27)
         
000109 2711      	clr r17
00010a 2722      	clr r18
          raskrutprovks:
00010b 9101      	ld r16,z+
00010c 0f10      	add r17,r16
00010d f408      	brcc raskrutprovks1
00010e 9523      	inc r18
          raskrutprovks1:
00010f 953a      	dec r19
000110 f7d1      	brne raskrutprovks
000111 9101      	ld r16,z+
000112 0f20      	add r18,r16
         ;mov r16,r18
         ;rcall wb
         ;mov r16,r17
         ;rcall wb
000113 9513      	inc r17
000114 f679      	brne raskruterrcrc
000115 9523      	inc r18
000116 f669      	brne raskruterrcrc
         
         
         
         
         ;ldi r16,','
         ;rcall ws		;проверка потерь пакетов
         			;на передаче надо в [8] передать счетчик
         ;lds r17,bbb
         ;inc r17
         ;sts bbb,r17
         ;lds r16,(bufpaket+8)
         ;cp r16,r17
         ;breq abbb
         
         ;push r16
         ;ldi r16,'n'
         ;rcall ws
         ;pop r16
         ;rcall wb
         ;mov r16,r17
         ;rcall wb
         ;ldi r16,' '
         ;rcall ws
         ;lds r16,(bufpaket+8)
         ;sts bbb,r16
         ;
         ;abbb:
         
         
         
         
         
         ;ldi r16,'t'
         ;rcall ws
         
000117 9100 02af 	lds r16,(bufpaket+29);tip
         ;rcall wb
         
000119 3001      	cpi r16,1
00011a f0f1      	breq progflash
00011b 3002      	cpi r16,2
00011c f0e1      	breq progeeprom
         
00011d 3005      	cpi r16,5
00011e f029      	breq pm_kluch1
00011f 3006      	cpi r16,6
000120 f021      	breq pm_razreshen1
000121 3008      	cpi r16,8
000122 f019      	breq prinat_ciklovoj_paket	
         
         
          nemoe_zelezo:
000123 cf8b      	rjmp application_layer1
         
          pm_kluch1:
000124 c099      	rjmp pm_kluch
          pm_razreshen1:
000125 c067      	rjmp pm_razreshen
         
          prinat_ciklovoj_paket:
         
         ;ldi r16,'c'
         ;rcall ws
000126 9100 034f 	lds r16,count_ciklovogo_paketa
         ;rcall wb
000128 950a      	dec r16
000129 9300 034f 	sts count_ciklovogo_paketa,r16
00012b f7b9      	brne nemoe_zelezo
         ;ldi r16,'o'
         ;rcall ws
         
00012c e090      	ldi r25,high(e_razreshit)
00012d e880      	ldi r24,low(e_razreshit)
00012e e73c      	ldi r19,124
          zapret_decodera:
00012f d44c      	rcall mrd
000130 2300      	tst r16
000131 f011      	breq zapret_decodera1
000132 2700      	clr r16
000133 d440      	rcall mwr
         
          zapret_decodera1:
000134 9601      	adiw r24,1
000135 953a      	dec r19
000136 f7c1      	brne zapret_decodera
000137 d0a7      	rcall zagruz_razreshen
000138 cf76      	rjmp application_layer1
         
          progeeprom:
          progflash:
000139 2f40      	mov r20,r16	;tip
         
00013a 9100 02ad 	lds r16,(bufpaket+27);	;ver_zeleza
         ;rcall wb
00013c e7ff      	ldi zh,high(nomver_zeleza*2)
00013d efea      	ldi zl,low(nomver_zeleza*2)
00013e 95c8      	lpm
         ;push r16
         ;mov r16,r0
         ;rcall wb
         ;pop r16
00013f 1500      	cp r16,r0
000140 f711      	brne nemoe_zelezo
         
         ;mov r16,r20
         ;rcall wb
         ;ldi r16,'t'
         ;rcall ws
         
000141 3041      	cpi r20,1
000142 f071      	breq progflash1
         
000143 e830      	ldi r19,128
000144 e0f2      	ldi zh,high(bufpaket+32)
000145 ebe2      	ldi zl,low(bufpaket+32)
000146 2788      	clr r24
000147 2799      	clr r25
         
          provcope:
000148 d433      	rcall mrd
000149 2f10      	mov r17,r16
00014a 9101      	ld r16,z+
         ;rcall wb
00014b 1301      	cpse r16,r17
00014c d427      	rcall mwr
         
00014d 9601      	adiw r24,1
00014e 953a      	dec r19
00014f f7c1      	brne provcope
          errcrcprog:
000150 cf5e      	rjmp application_layer1
         
         
          progflash1:
000151 9100 02ae 	lds r16,(bufpaket+28)	;N_sektora
000153 9300 018e 	sts N_sektora,r16
         ;rcall wb
         ;ldi r16,'N'
         ;rcall ws
         ;lds r16,N_sektora
         
000155 27ee      	clr zl
000156 e8f0      	ldi zh,$80
000157 0ff0      	add zh,r16
000158 9488      	clc
000159 95f7      	ror zh
00015a 95e7      	ror zl
00015b 95f5      	asr zh
00015c 95e7      	ror zl
         
         ;ldi r16,':'
         ;rcall ws
         ;mov r16,zh
         ;rcall wb
         ;mov r16,zl
         ;rcall wb
         
00015d 2f8e      	mov r24,zl
00015e 2f9f      	mov r25,zh
         ;ldi r16,'$'
         ;rcall ws
00015f e830      	ldi r19,128
000160 e0d2      	ldi yh,high(bufpaket+32)
000161 ebc2      	ldi yl,low(bufpaket+32)
000162 0fee      	lsl zl
000163 1fff      	rol zh
          provcopf:
000164 9005      	lpm r0,z+
000165 9119      	ld r17,y+
000166 1601      	cp r0,r17
000167 f419      	brne nesovpalo
000168 953a      	dec r19
000169 f7d1      	brne provcopf
         
         ;ldi r16,'@'
         ;rcall ws
         
00016a c00a      	rjmp fsovpalo
         
          nesovpalo:
         ;ldi r16,'N'
         ;rcall ws
         ;lds r16,N_sektora
         ;rcall wb
         
00016b e0d2      	ldi yh,high(bufpaket+32)
00016c ebc2      	ldi yl,low(bufpaket+32)
00016d 2fe8      	mov zl,r24
00016e 2ff9      	mov zh,r25
00016f 940e 3f70 	call write_page
         
000171 e20b      ldi r16,'+'
000172 d0d3      rcall ws
000173 9468      	set
000174 f8c0      	bld nado_obnov,nado_obnovb
         
          fsovpalo:
000175 9100 018e 	lds r16,N_sektora
000177 370b      	cpi r16,endsek
000178 f491      	brne neendsek
         
          new_prog:
         ;ldi r16,'%'
         ;rcall ws
         
000179 e4f0      	ldi zh,$40	;$20*2
00017a 27ee      	clr zl
00017b 940e 3fc8 	call tstks_flash
00017d f469      	brne errks
00017e fec0      	sbrs nado_obnov,nado_obnovb
00017f c00b      	rjmp neendsek
         ;ldi r16,'^'
         ;rcall ws
         
000180 e4f0      	ldi zh,$40	;$20*2
000181 e0e6      	ldi zl,low(poz_ver_po*2)
000182 95c8      	lpm
         ;mov r16,r0
         ;rcall wb
         
000183 9100 018f 	lds r16,tek_ver_po
         ;rcall wb
         
000185 1600      	cp r0,r16
000186 f421      	brne neendsek
         
         
000187 e201      ldi r16,'!'
000188 d0bd      rcall ws
         
000189 940c 3f20 jmp copyflash
         
         ;aaa
          errks:
          neendsek:
          esovpalo:
         
00018b cf23      	rjmp application_layer1
         
         
         
         ;;;;;;;;;;;;;;;;;;;;;;;;;;;;;;;;;;;;;;;;;;;;;;;;;;;;;
         
          adr_nemoj:
00018c cf22      	rjmp application_layer1
         
         ;qqq
          pm_razreshen:
00018d e0b2      	ldi xh,high(bufpaket+32)
00018e eba2      	ldi xl,low(bufpaket+32)
         
00018f e7ff      	ldi zh,high(mac*2)	;7 mlad bit
000190 efe8      	ldi zl,low(mac*2)
         ;ldi r16,'N'
         ;rcall ws
000191 910d      	ld r16,x+			;adr0
         ;rcall wb
000192 9135      	lpm r19,z+
000193 1703      	cp r16,r19
000194 f7b9      	brne adr_nemoj
000195 9135      	lpm r19,z+
000196 910d      	ld r16,x+			;adr1
         ;rcall wb
000197 1703      	cp r16,r19
000198 f799      	brne adr_nemoj
000199 9632      	adiw zl,2
00019a 9135      	lpm r19,z+
00019b 9530      	com r19
00019c 910d      	ld r16,x+			;adr2
         ;rcall wb
00019d 1703      	cp r16,r19
00019e f769      	brne adr_nemoj
00019f 9134      	lpm r19,z
0001a0 9530      	com r19
0001a1 910d      	ld r16,x+			;adr3
         ;rcall wb
0001a2 1703      	cp r16,r19
0001a3 f741      	brne adr_nemoj
         
         ;adr_moj:
         
         ;ldi r16,'a'
         ;rcall ws
0001a4 e0f1      	ldi zh,high(razreshit)
0001a5 e9e0      	ldi zl,low(razreshit)
0001a6 e73c      	ldi r19,124
          copyrazresh:
0001a7 910d      	ld r16,x+
0001a8 9301      	st z+,r16
         ;rcall wb
0001a9 953a      	dec r19
0001aa f7e1      	brne copyrazresh
         
0001ab e0f1      	ldi zh,high(razreshit)
0001ac e9e0      	ldi zl,low(razreshit)
0001ad e090      	ldi r25,high(e_razreshit)
0001ae e880      	ldi r24,low(e_razreshit)
0001af e73c      	ldi r19,124
          copy_e_razresh:
0001b0 9111      	ld r17,z+
0001b1 d3ca      	rcall mrd
0001b2 1701      	cp r16,r17
0001b3 f011      	breq razresh_neizmen
0001b4 2f01      	mov r16,r17
0001b5 d3be      	rcall mwr
         ;rcall wb
         
          razresh_neizmen:
0001b6 9601      	adiw r24,1
0001b7 953a      	dec r19
0001b8 f7b9      	brne copy_e_razresh
         
0001b9 d025      	rcall zagruz_razreshen
         
0001ba e003      	ldi r16,N_ciklovyh
0001bb 9300 034f 	sts count_ciklovogo_paketa,r16
         
0001bd cef1      	rjmp application_layer1
         
          pm_kluch:
         
         ;ldi r16,'y'
         ;rcall ws
         
0001be e0d2      	ldi yh,high(bufpaket+32)	;razbiraemsja s kluchami
0001bf ebc2      	ldi yl,low(bufpaket+32)
0001c0 e0f1      	ldi zh,high(kluchi_dekoderu)
0001c1 e7e9      	ldi zl,low(kluchi_dekoderu)
0001c2 e03f      	ldi r19,15
          raskrutkl:
0001c3 8108      	ld r16,y
0001c4 9301      	st z+,r16
         ;rcall wb
0001c5 9623      	adiw yl,3
0001c6 953a      	dec r19
0001c7 f7d9      	brne raskrutkl
         
          kluchi_prinjaty:
         ;ldi r16,'o'
         ;rcall ws
0001c8 9100 017a 	lds r16,(kluchi_dekoderu+1)
0001ca 9300 018c 	sts config2,r16
         
0001cc 9120 017d 	lds r18,(kluchi_dekoderu+4)
0001ce 2799      	clr r25
0001cf e181      	ldi r24,low(eN_stvolov)
0001d0 d3ab      	rcall mrd
0001d1 1702      	cp r16,r18
0001d2 f011      	breq stvoly_neizmen
0001d3 2f02      	mov r16,r18
0001d4 d39f      	rcall mwr
          stvoly_neizmen:
         
0001d5 e0f1      	ldi zh,high(kluchi_dekoderu+7)
0001d6 e8e0      	ldi zl,low(kluchi_dekoderu+7)
         
0001d7 e110      	ldi r17,16
0001d8 e038      	ldi r19,8
          zagruz_kluch:
0001d9 9101      	ld r16,z+
0001da d356      	rcall spi_pdbyte
0001db 9513      	inc r17
0001dc 953a      	dec r19
0001dd f7d9      	brne zagruz_kluch
         
         ;ldi r16,'j'
         ;rcall ws
         
          kluchi_neizmen:
         
0001de ced0      	rjmp application_layer1
         
         
         
         
         ;subprograms------------------------------------------------------------------------
         
         
          zagruz_razreshen:
         
0001df 939f      	push r25
0001e0 938f      	push r24
0001e1 933f      	push r19
0001e2 932f      	push r18
0001e3 931f      	push r17
0001e4 930f      	push r16
         ;ldi r16,'g'
         ;rcall ws
         
0001e5 9100 0178 	lds r16,tekstvol
0001e7 950a      	dec r16
0001e8 0f00      	lsl r16
0001e9 e090      	ldi r25,high(e_razreshit)
0001ea e880      	ldi r24,low(e_razreshit)
0001eb 2733      	clr r19
0001ec 0f80      	add r24,r16
0001ed 1f93      	adc r25,r19
0001ee d38d      	rcall mrd
0001ef 2f20      	mov r18,r16
         
0001f0 ef0f      	ser r16
         
0001f1 fd20      	sbrc r18,0
0001f2 7f00      	andi r16,$f0
0001f3 fd21      	sbrc r18,1
0001f4 710f      	andi r16,$1f
0001f5 e118      	ldi r17,24
         ;rcall wb
0001f6 d33a      	rcall spi_pdbyte
         
0001f7 ef0f      	ser r16
0001f8 fd22      	sbrc r18,2
0001f9 7f02      	andi r16,$f2
0001fa fd23      	sbrc r18,3
0001fb 730f      	andi r16,$3f
         
0001fc 9513      	inc r17
         ;rcall wb
0001fd d333      	rcall spi_pdbyte
         
0001fe ef0f      	ser r16
0001ff fd24      	sbrc r18,4
000200 7f04      	andi r16,$f4
000201 fd25      	sbrc r18,5
000202 750f      	andi r16,$5f
         
000203 9513      	inc r17
         ;rcall wb
000204 d32c      	rcall spi_pdbyte
         
000205 ef0f      	ser r16
000206 fd26      	sbrc r18,6
000207 7f06      	andi r16,$f6
000208 fd27      	sbrc r18,7
000209 770f      	andi r16,$7f
         
00020a 9513      	inc r17
         ;rcall wb
00020b d325      	rcall spi_pdbyte
         
00020c 9601      	adiw r24,1
00020d d36e      	rcall mrd
00020e 2f20      	mov r18,r16
         
00020f ef0f      	ser r16
000210 fd20      	sbrc r18,0
000211 7f08      	andi r16,$f8
000212 fd21      	sbrc r18,1
000213 790f      	andi r16,$9f
         
000214 9513      	inc r17
         ;rcall wb
000215 d31b      	rcall spi_pdbyte
         
000216 ef0f      	ser r16
000217 fd22      	sbrc r18,2
000218 7f0a      	andi r16,$fa
000219 fd23      	sbrc r18,3
00021a 7b0f      	andi r16,$bf
         
00021b 9513      	inc r17
         ;rcall wb
00021c d314      	rcall spi_pdbyte
         
         
00021d ef0f      	ser r16
00021e fd24      	sbrc r18,4
00021f 7f0c      	andi r16,$fc
000220 fd25      	sbrc r18,5
000221 7d0f      	andi r16,$df
         
000222 9513      	inc r17
         ;rcall wb
000223 d30d      	rcall spi_pdbyte
         
000224 ef0f      	ser r16
000225 fd26      	sbrc r18,6
000226 7f0e      	andi r16,$fe
         
000227 9513      	inc r17
         ;rcall wb
000228 d308      	rcall spi_pdbyte
         
000229 910f      	pop r16
00022a 911f      	pop r17
00022b 912f      	pop r18
00022c 913f      	pop r19
00022d 918f      	pop r24
00022e 919f      	pop r25
00022f 9508      	ret
         
         
         ;-----------------------------------------------------------------------------------
         
         
          gen_shum2:			;raskruchivaet tek paket
000230 930f      	push r16		;shum2-nachalnoe chislo, config2
000231 931f      	push r17
000232 9110 018b 	lds r17,shum2
000234 9100 018c 	lds r16,config2
000236 2310      	and r17,r16
000237 2f21         	mov r18,r17
         
000238 e007      	ldi r16,7
          krutim2:
000239 9526      	lsr r18
00023a 2712      	eor r17,r18
00023b 950a      	dec r16
00023c f7e1      	brne krutim2
         
00023d 9120 018b 	lds r18,shum2
00023f 9516      	lsr r17
000240 1f22      	rol r18		;r18-otvet
000241 9320 018b 	sts shum2,r18
         ;mov r16,r18
         ;rcall wb
         
000243 911f      	pop r17
000244 910f      	pop r16
000245 9508      	ret
         
         
         
         ;-----------------------------------------------------------------------------------
         ;-----------------------------------------------------------------------------------
         ;wb:			;Ёз r16
         ;	push r16
         ;
         ;	swap r16
         ;	rcall wb1
         ;	pop r16
         
         ;rcall wb1
         ;push r16
         ;ldi r16,' '
         ;rcall ws
         ;pop r16
         ;ret
         
         
         ;wb1:
         ;	push r16
         ;	push r18
         ;	andi r16,$0f
         ;	cpi r16,$0a
         ;	brcs wb2
         ;	ldi r18,$7
         ;	add r16,r18
         ;wb2:
         ;	ldi r18,$30
         ;	add r16,r18
         ;	rcall ws
         ;	pop r18
         ;	pop r16
         ;	ret
         
         
          wywuart:
          ws:
000246 9b5d      	sbis ucsra,udre		;uart pd rdy?
000247 cffe      	rjmp wywuart
000248 b90c      	out udr,r16
         ;call delay10ms
000249 9508      	ret
         
         
         
         ;-----------------------------------------------------------------------------
         ;Подпrогrаммa задеrжек 5 мкs, 25 мкs, 50 мкs
         ;-----------------------------------------------------------------------------
         
         
          delay100ms:
00024a 93af      	push xl
00024b 93bf      	push xh
00024c eea8      	ldi xl,low(1000)			;пагза 0.1 бек
00024d e0b3      	ldi xh,high(1000)
00024e c004      	rjmp d1s
         
          delay10ms:
00024f 93af      	push xl
000250 93bf      	push xh
000251 e0aa      	ldi xl,low(10)			;пагза 0.01 бек
000252 e0b0      	ldi xh,high(10)
000253 d006      d1s:	rcall delay50us
000254 d005      	rcall delay50us
000255 9711      	sbiw xl,1
000256 f7e1      	brne d1s
000257 91bf      	pop xh
000258 91af      	pop xl
000259 9508      	ret
         
         
          delay50us:
00025a 936f      	push r22
00025b e862      	ldi r22,130				;50 мкб
00025c c002      	rjmp d5us_loop
         
          delay5us:
00025d 936f      	push r22
00025e e06a      	ldi r22,10				;[(10+3*r22)*0.125]uS = 5 мкб
          d5us_loop:
00025f 956a      	dec r22
000260 f7f1      	brne d5us_loop
000261 916f      	pop r22
000262 9508      	ret
         
         
         ;-----------------------------------------------------------------------------------
         ;-----------------------------------------------------------------------------------
          .eseg
          .org 0
          .db $ff,$ff
000000 ff
000001 ff
         
          e_kluchi_dekoderu:
          .db $b2,$a6,$7,$2,$9,$0,$0
000002 b2
000003 a6
000004 07
000005 02
000006 09
000007 00
000008 00
         
          e_kluchi_v_registry:
          .db $2,$45,$1,$89,$6,$42,$5,$f6
000009 02
00000a 45
00000b 01
00000c 89
00000d 06
00000e 42
00000f 05
000010 f6
         
         ;e_pozinf:
         ;.db 168	;adres kluchej mlad byte
         
          eN_stvolov:
          .db 8
000011 08
         
         ;eN_abonentov:
         ;.db 1
         
         ;econfig1:
         ;.db $b2
         
         
          	.db $ff,$ff,$ff,$ff,$ff,$ff,$ff,$ff,$ff,$ff,$ff
000012 ff
000013 ff
000014 ff
000015 ff
000016 ff
000017 ff
000018 ff
000019 ff
00001a ff
00001b ff
00001c ff
         
          	.dw $ffff,$ffff,$ffff,$ffff,$ffff,$ffff,$ffff,$ffff
00001d ff ff
00001f ff ff
000021 ff ff
000023 ff ff
000025 ff ff
000027 ff ff
000029 ff ff
00002b ff ff
          	.dw $ffff,$ffff,$ffff,$ffff,$ffff,$ffff,$ffff,$ffff
00002d ff ff
00002f ff ff
000031 ff ff
000033 ff ff
000035 ff ff
000037 ff ff
000039 ff ff
00003b ff ff
          	.dw $ffff,$ffff,$ffff,$ffff,$ffff,$ffff,$ffff,$ffff
00003d ff ff
00003f ff ff
000041 ff ff
000043 ff ff
000045 ff ff
000047 ff ff
000049 ff ff
00004b ff ff
          	.dw $ffff,$ffff,$ffff,$ffff,$ffff,$ffff,$ffff,$ffff
00004d ff ff
00004f ff ff
000051 ff ff
000053 ff ff
000055 ff ff
000057 ff ff
000059 ff ff
00005b ff ff
          	.dw $ffff,$ffff,$ffff,$ffff,$ffff,$ffff,$ffff,$ffff
00005d ff ff
00005f ff ff
000061 ff ff
000063 ff ff
000065 ff ff
000067 ff ff
000069 ff ff
00006b ff ff
          	.dw $ffff,$ffff,$ffff,$ffff,$ffff,$ffff,$ffff,$ffff
00006d ff ff
00006f ff ff
000071 ff ff
000073 ff ff
000075 ff ff
000077 ff ff
000079 ff ff
00007b ff ff
         
         
         
         
          .org 128
         
          e_razreshit:				;ds 124 byte
          	.dw $ffff,$ffff,$ffff,$ffff,$ffff,$ffff,$ffff,$ffff
000080 ff ff
000082 ff ff
000084 ff ff
000086 ff ff
000088 ff ff
00008a ff ff
00008c ff ff
00008e ff ff
          	.dw $ffff,$ffff,$ffff,$ffff,$ffff,$ffff,$ffff,$ffff
000090 ff ff
000092 ff ff
000094 ff ff
000096 ff ff
000098 ff ff
00009a ff ff
00009c ff ff
00009e ff ff
          	.dw $ffff,$ffff,$ffff,$ffff,$ffff,$ffff,$ffff,$ffff
0000a0 ff ff
0000a2 ff ff
0000a4 ff ff
0000a6 ff ff
0000a8 ff ff
0000aa ff ff
0000ac ff ff
0000ae ff ff
          	.dw $ffff,$ffff,$ffff,$ffff,$ffff,$ffff,$ffff,$ffff
0000b0 ff ff
0000b2 ff ff
0000b4 ff ff
0000b6 ff ff
0000b8 ff ff
0000ba ff ff
0000bc ff ff
0000be ff ff
          	.dw $ffff,$ffff,$ffff,$ffff,$ffff,$ffff,$ffff,$ffff
0000c0 ff ff
0000c2 ff ff
0000c4 ff ff
0000c6 ff ff
0000c8 ff ff
0000ca ff ff
0000cc ff ff
0000ce ff ff
          	.dw $ffff,$ffff,$ffff,$ffff,$ffff,$ffff,$ffff,$ffff
0000d0 ff ff
0000d2 ff ff
0000d4 ff ff
0000d6 ff ff
0000d8 ff ff
0000da ff ff
0000dc ff ff
0000de ff ff
          	.dw $ffff,$ffff,$ffff,$ffff,$ffff,$ffff,$ffff,$ffff
0000e0 ff ff
0000e2 ff ff
0000e4 ff ff
0000e6 ff ff
0000e8 ff ff
0000ea ff ff
0000ec ff ff
0000ee ff ff
          	.dw $ffff,$ffff,$ffff,$ffff,$ffff,$ffff
0000f0 ff ff
0000f2 ff ff
0000f4 ff ff
0000f6 ff ff
0000f8 ff ff
0000fa ff ff
         
         
         
          .cseg
         
         ;;;;;;;;;;;;;;;;;;;;;;;;;;;;;;;;;;;;;;;;;;;;;;;;;;;;;;;;;;;;;;;;;;;;;;;;;;;
         
         
         ;разбираю таблицу с PID кодами для текущей программы. Кодов предусматривается
         ; до 8-ми штук (16 байт).
         ;с возможностью дальнейшего расширения при необходимости.
         ;После того, как все PID коды найдены и сохранены, вызываю
         ;подпрограмму PID_analyze, которая возвращает мне в регистре R19 коды
         ;для каждого из восьми PIDов: бит = 1 если декодирование разрешено, 
         ;и 0 если поток запрещено декодировать. Номер PID (по счету) соответствует
         ;номеру бита. 
         ;В регистре R20 возвращается команда для общего декодирования
         ; канала (CA_enable_flag): код 81h - декодирование разрешено
         ; F1h - декодирование запрещено
         
          al_3_2:				;разбираю CA_PMT и формирую CA_PMT_REPLY
         ;ldi r16,'8'
         ;call ws
         
000263 e0f0      	ldi zh,high(apdu_buf+3)
000264 e7ea      	ldi zl,low(apdu_buf+3)
000265 9151      	ld r21,z+			;длинна посылки
000266 9631      	adiw zl,1			;пропустить ca_pmt_list_management
000267 9071      	ld r7,z+		;2 байта номер программы (program_number)
000268 9081      	ld r8,z+
000269 9631      	adiw zl,1		;пропустить номер версии и current_next_indicator
00026a 9101      	ld r16,z+		;счетчик длинны program_info_lenhth
00026b 9111      	ld r17,z+
         
00026c 0fe1      	add zl,r17	;указатель ставлю на первое из полей elementary_pid
00026d 1ff0      	adc zh,r16
         
00026e 1b51      	sub r21,r17		;отсечь от длинны обработанные байты
00026f e006      	ldi r16,6
000270 1b50      	sub r21,r16
         
000271 e0d3      	ldi yh,high(pid_buf)
000272 e5c0      	ldi yl,low(pid_buf)
000273 2422      	clr r2				;pid_counter
         
          search_pids:
000274 9631      	adiw zl,1
000275 9111      	ld r17,z+				;сохранить PID
000276 9319      	st y+,r17
000277 9111      	ld r17,z+
000278 9319      	st y+,r17
000279 9423      	inc r2
         
00027a 9631      	adiw zl,1				;ES_info_length
00027b 9121      	ld r18,z+
         
00027c 2711      	clr r17		;указатель адреса на следующее поле stream_type
00027d 0fe2      	add zl,r18
00027e 1ff1      	adc zh,r17
         
00027f 1b52      	sub r21,r18
000280 e015      	ldi r17,5
000281 1b51      	sub r21,r17
         
000282 2355      	tst r21
000283 f781      	brne search_pids
         
         
000284 9220 0177 	sts num_pids,r2	;передаю подпрограмме управление процессом
000286 2700      	clr r16
000287 d334      	rcall PID_analyze
         
         ;rcall a_pr2
         
         ;теперь формирую ответный пакет
         
000288 e0fb      	ldi zh,high(ca_pmt_reply*2)
000289 ede2      	ldi zl,low(ca_pmt_reply*2)
         
00028a d02d      	rcall load_apdu			;прописать заголовок
         	
00028b 9279      	st y+,r7				;номер программы
00028c 9289      	st y+,r8
00028d e009      	ldi r16,9
00028e 9309      	st y+,r16				;version_number и current_next_indicator
00028f 9349      	st y+,r20				;CA_enable_flag + CA_enable
         
         
000290 e0f3      	ldi zh,high(pid_buf)
000291 e5e0      	ldi zl,low(pid_buf)
000292 9020 0177 	lds r2,num_pids			;pid_counter
000294 e054      	ldi r21,4				;счетчик байт
         
          load_pids:
000295 9101      	ld r16,z+
000296 9309      	st y+,r16
000297 9101      	ld r16,z+
000298 9309      	st y+,r16
         
000299 e003      	ldi r16,3
00029a 0f50      	add r21,r16
         
00029b e801      	ldi r16,$81				;CA_enable
00029c ff30      	sbrs r19,0
00029d ef01      	ldi r16,$F1
00029e 9309      	st y+,r16
         
00029f 9537      	ror r19
         
0002a0 942a      	dec r2
0002a1 f799      	brne load_pids
         
0002a2 e0f0      	ldi zh,high(apdu_buf+3)
0002a3 e7ea      	ldi zl,low(apdu_buf+3)
0002a4 8350      	st z,r21
0002a5 e004      	ldi r16,4			;учесть заголовок и байт длинны
0002a6 0f50      	add r21,r16
0002a7 9350 0063 	sts tpdu_size,r21		;общая длинна посылки
         
         
         ;	rjmp application_layer_exit
         
         
         
          application_layer_exit:
0002a9 cda5      	rjmp application_layer2
         
         
         
         ;------------------------------------------------------------------------------------------------
         ;------------------------------------------------------------------------------------------------
         ;дать команду на начало новой сессии
          start_session_cmd:
         ;--------------- Вывод служебного текста -------------------------------------
         ;	ldi zl,low(NewSession*2)     ;print
         ;	ldi zh,high(NewSession*2)
         ;	rcall print
         ;mov r16,service_flag
         ;rcall wb
         
         ;ldi r16,'1'
         ;rcall ws
         
         ;------------------------------------------------------------------------------
         
0002aa 9468      	set
0002ab fe64      	sbrs service_flag,4
0002ac c005      	rjmp to_res_manager
0002ad fe65      	sbrs service_flag,5
0002ae c005      	rjmp to_app_manager
0002af fe66      	sbrs service_flag,6
0002b0 c005      	rjmp to_ca_support
0002b1 c005      	rjmp start_session_cmd_exit
         
          to_res_manager:
0002b2 f860      	bld service_flag,0
0002b3 c003      	rjmp start_session_cmd_exit
         
          to_app_manager:
         ;ldi r16,'1'
         ;rcall ws
         
0002b4 f861      	bld service_flag,1
0002b5 c001      	rjmp start_session_cmd_exit
         
          to_ca_support:
0002b6 f862      	bld service_flag,2
         
          start_session_cmd_exit:
0002b7 cd92      	rjmp application_layer
         
         
         
         ;------------------------------------------------------------------------------------------------
         ;------------------------------------------------------------------------------------------------
         
         ;подпрограмма перегружает данные из Flash в буфер APDU
         ;регистр ZH:ZL должен указывать на начало буфера
          load_apdu:
0002b8 e0d0      	ldi yh,high(apdu_buf)
0002b9 e7c7      	ldi yl,low(apdu_buf)
         
0002ba 95c8      	lpm
0002bb 9631      	adiw zl,1			;размер буфера
0002bc 9200 0063 	sts tpdu_size,r0
0002be 2d10      	mov r17,r0
         ;push r16
         ;ldi r16,'L'
         ;rcall ws
         
         ;mov r16,r0
         ;rcall wb
         ;ldi r16,' '
         ;rcall ws
         ;pop r16
         
         
          load_1:
0002bf 95c8      	lpm
0002c0 9631      	adiw zl,1
0002c1 9209      	st y+,r0
0002c2 951a      	dec r17
0002c3 f7d9      	brne load_1
         
0002c4 9468      	set				;команда передать
0002c5 f857      	bld appl_flag,7
0002c6 9508      	ret
         
         
         ;------------------------------------------------------------------------------------------------
         ;------------------------------------------------------------------------------------------------
         ;подпрограмма перегружает данные из Flash в буфер APDU
         ;добавляет номер декодера
         ;регистр ZH:ZL должен указывать на начало буфера
         
          load_apdu_num:
         
0002c7 e0d0      	ldi yh,high(apdu_buf)
0002c8 e7c7      	ldi yl,low(apdu_buf)
         
0002c9 95c8      	lpm
0002ca 9631      	adiw zl,1			;размер буфера
0002cb 9200 0063 	sts tpdu_size,r0
0002cd 2d10      	mov r17,r0
         
          load_1_num:
0002ce 95c8      	lpm
0002cf 9631      	adiw zl,1
0002d0 9209      	st y+,r0
0002d1 951a      	dec r17
0002d2 f7d9      	brne load_1_num
         
0002d3 9727      	sbiw yl,7	;chislo 7 znakov
         
0002d4 e7ff      	ldi zh,high(mac*2)	;7 mlad bit
0002d5 efe8      	ldi zl,low(mac*2)
         
0002d6 9185      	lpm r24,z+			;adr0
0002d7 9195      	lpm r25,z+			;adr1
0002d8 9632      	adiw zl,2
0002d9 9155      	lpm r21,z+
0002da 9550      	com r21				;adr2
0002db 9114      	lpm r17,z
0002dc 9510      	com r17				;adr3
0002dd 2311      	tst r17
0002de f501      	brne num_bol8M
         
0002df 9556      	lsr r21
0002e0 9597      	ror r25
0002e1 9587      	ror r24
0002e2 9583      	inc r24
0002e3 f419      	brne load_1_num1
0002e4 9593      	inc r25
0002e5 f409      	brne load_1_num1
0002e6 9553      	inc r21
          load_1_num1:		;r21:r25:r24- nomer
         ;qqqq
0002e7 2700      	clr r16
0002e8 e03f      	ldi r19,$0f
0002e9 e422      	ldi r18,$42
0002ea e410      	ldi r17,$40
0002eb d01b      	rcall divznak
0002ec e031      	ldi r19,$01
0002ed e826      	ldi r18,$86
0002ee ea10      	ldi r17,$a0
0002ef d017      	rcall divznak
0002f0 2733      	clr r19
0002f1 e227      	ldi r18,$27
0002f2 e110      	ldi r17,$10
0002f3 d013      	rcall divznak
         ;	clr r19
0002f4 e023      	ldi r18,$3
0002f5 ee18      	ldi r17,$e8
0002f6 d010      	rcall divznak
         ;	clr r19
0002f7 2722      	clr r18
0002f8 e614      	ldi r17,$64
0002f9 d00d      	rcall divznak
         
         ;	clr r19
         ;	clr r18
0002fa e01a      	ldi r17,10
0002fb d00b      	rcall divznak
         
0002fc 5d60      	subi r22,$d0
0002fd 9369      	st y+,r22
         
0002fe c005      	rjmp podelil
         
          num_bol8M:
         
0002ff e017      	ldi r17,7
000300 e20d      	ldi r16,'-'
          num_bol32k1:
000301 9309      	st y+,r16
000302 951a      	dec r17
000303 f7e9      	brne num_bol32k1
         
          podelil:
000304 9468      	set				;команда передать
000305 f857      	bld appl_flag,7
000306 9508      	ret
         
          divznak:
000307 2700      	clr r16
          divznak1:
000308 2f45      	mov r20,r21
000309 2f79      	mov r23,r25
00030a 2f68      	mov r22,r24
00030b 9503      	inc r16
00030c 1b81      	sub r24,r17
00030d 0b92      	sbc r25,r18
00030e 0b53      	sbc r21,r19
00030f f7c0      	brcc divznak1
000310 950a      	dec r16
000311 2f54      	mov r21,r20
000312 2f97      	mov r25,r23
000313 2f86      	mov r24,r22
000314 5d00      	subi r16,$d0	;+30h
000315 9309      	st y+,r16
000316 9508      	ret
         
         ;------------------------------------------------------------------------------------------------
         ;
         ;Подлежащий уровень, Session Layer
         ;
         ;Связь с подлежащими уровнями производится посредством
         ;флага [apl_flag], [tl_flag] а также буфера 
         ;TPDU_buf и указателя его размера TPDU_SIZE
         ;
         ;------------------------------------------------------------------------------------------------
         
          session_layer:
         
000317 fe51      	sbrs appl_flag,1	;если нет транспортного соединения
000318 c006      	rjmp session_exit
         
         
000319 fe52      	sbrs appl_flag,2		;если нет сесии
00031a c006      	rjmp start_session
         
00031b fc44      	sbrc tl_flag,4			;если принят SPDU
00031c c06e      	rjmp ready_spdu 
         
00031d fc57      	sbrc appl_flag,7		;если есть данные для передачи
00031e c08e      	rjmp spdu_to_host
         
         
          session_exit:
00031f d0b1      	rcall transport_layer
000320 9508      	ret
         
         
         ;------------------------------------------------------------------------------------------------
         ;------------------------------------------------------------------------------------------------
         
          start_session:				;процедура установления новой сесии
         
000321 e0f0      	ldi zh,high(tpdu_buf)
000322 e7e3      	ldi zl,low(tpdu_buf)
         
000323 2700      	clr r16
000324 9300 0064 	sts tpdu_pntr,r16
000326 e006      	ldi r16,6;7
000327 9300 0063 	sts tpdu_size,r16
         
000329 e901      	ldi r16,$91
00032a 9301      	st z+,r16
00032b e004      	ldi r16,$04
00032c 9301      	st z+,r16
00032d e000      	ldi r16,$00
00032e 9301      	st z+,r16
         
00032f 2700      	clr r16
000330 fc60      	sbrc service_flag,0	;какому ресурсу буду открывать сессию
000331 e001      	ldi r16,$01
000332 fc61      	sbrc service_flag,1
000333 e002      	ldi r16,$02
000334 fc62      	sbrc service_flag,2
000335 e003      	ldi r16,$03
000336 9301      	st z+,r16
         
000337 e000      	ldi r16,$00
000338 9301      	st z+,r16
000339 e401      	ldi r16,$41
00033a 9301      	st z+,r16
         
00033b 9468      	set
00033c f847      	bld tl_flag,7			;команда передать TPDU
         
          ss_1:
00033d d093      	rcall transport_layer
00033e dd72      	rcall dekoder
         ;ldi r16,'z'
         ;rcall ws
         
00033f fc47      	sbrc tl_flag,7		;ждать пока запрос будет отправлен**********
000340 cffc      	rjmp ss_1
000341 fe44      	sbrs tl_flag,4			;ждать когда хост ответит
000342 cffa      	rjmp ss_1
         
000343 94e8      	clt
000344 f844      	bld tl_flag,4
000345 d08b      	rcall transport_layer
         
         
000346 e0f0      	ldi zh,high(tpdu_buf)
000347 e7e3      	ldi zl,low(tpdu_buf)
000348 9101      	ld r16,z+
000349 3902      	cpi r16,$92
00034a f439      	brne start_session_error
         
00034b 9101      	ld r16,z+			;пропустить размер посылки
00034c 9101      	ld r16,z+			;статус ресурса
00034d 2300      	tst r16				;если не 0, то ресурс не доступен
00034e f419      	brne start_session_error		
         
00034f d003      	rcall save_ss_num
         
000350 9468      	set				;уровень пройден, сессия установлена
000351 f852      	bld appl_flag,2
         
          start_session_error:
000352 cfcc      	rjmp session_exit
         
         
         ;подпрограмма сохраняет номер открытой сесии в нужном буфере
          save_ss_num:
000353 9101      	ld r16,z+			;сохранить идентификатор ресурса
000354 9300 0067 	sts (resurse+0),r16
000356 9101      	ld r16,z+
000357 9300 0068 	sts (resurse+1),r16
000359 9101      	ld r16,z+
00035a 9300 0069 	sts (resurse+2),r16
00035c 9101      	ld r16,z+
00035d 9300 006a 	sts (resurse+3),r16
         
00035f 9101      	ld r16,z+			;сохранить номер сесии
000360 9300 006b 	sts (ss_num+0),r16
000362 8100      	ld r16,z
000363 9300 006c 	sts (ss_num+1),r16
         
000365 9731      	sbiw zl,1
         
000366 fc60      	sbrc service_flag,0
000367 c00d      	rjmp save_ss_num1
000368 fc61      	sbrc service_flag,1
000369 c016      	rjmp save_ss_num2
         
00036a 9101      	ld r16,z+			;Conditional Access Support
00036b 9300 0071 	sts (ss_num3+0),r16
00036d 8100      	ld r16,z
00036e 9300 0072 	sts (ss_num3+1),r16
         
000370 94e8      	clt
000371 f862      	bld service_flag,2		;подтвердить что сессия установлена
000372 9468      	set
000373 f866      	bld service_flag,6
000374 c015      	rjmp save_ss_num_exit
         
          save_ss_num1:
000375 9101      	ld r16,z+			;Resurce Manager
000376 9300 006d 	sts (ss_num1+0),r16
000378 8100      	ld r16,z
000379 9300 006e 	sts (ss_num1+1),r16
         
00037b 94e8      	clt
00037c f860      	bld service_flag,0
00037d 9468      	set
00037e f864      	bld service_flag,4
00037f c00a      	rjmp save_ss_num_exit
         
          save_ss_num2:
000380 9101      	ld r16,z+			;Application Information
000381 9300 006f 	sts (ss_num2+0),r16
000383 8100      	ld r16,z
000384 9300 0070 	sts (ss_num2+1),r16
         
000386 94e8      	clt
000387 f861      	bld service_flag,1
000388 9468      	set
000389 f865      	bld service_flag,5
         
          save_ss_num_exit:
         
         ;ldi r16,'S'
         ;rcall ws
         
00038a 9508      	ret
         
         ;------------------------------------------------------------------------------------------------
         ;------------------------------------------------------------------------------------------------
         
          ready_spdu:			;принят SPDU, обработать его
         
         ;--------------- Вывод служебного текста -------------------------------------
         ;	ldi zl,low(RX_SPDU_FromHost*2)     ;print
         ;	ldi zh,high(RX_SPDU_FromHost*2)
         ;	rcall print
         ;------------------------------------------------------------------------------
         	
         
00038b e0f0      	ldi zh,high(tpdu_buf)
00038c e7e3      	ldi zl,low(tpdu_buf)
         
00038d 9101      	ld r16,z+
         ;rcall wb
00038e 3900      	cpi r16,Ts_num
00038f f031      	breq r_spdu1
000390 3905      	cpi r16,Tcl_ses
000391 f0d1      	breq close_session
         
          r_spdu2:
000392 94e8      	clt
000393 f856      	bld appl_flag,6
000394 f844      	bld tl_flag,4
000395 c015      	rjmp r_spdu9		;остальные пакеты игнорировать
         
         
          r_spdu1:
000396 9101      	ld r16,z+		;проверить, открыта ли сессия для SPDU?
000397 9101      	ld r16,z+
000398 9110 006b 	lds r17,(ss_num+0)
00039a 1701      	cp r16,r17
00039b f7b1      	brne r_spdu2
00039c 9101      	ld r16,z+
00039d 9110 006c 	lds r17,(ss_num+1)
00039f 1701      	cp r16,r17
0003a0 f789      	brne r_spdu2
         
         
0003a1 9100 0065 	lds r16,tpdu_size_rx	;вычесть ненужные заголовки из длинны
0003a3 e014      	ldi r17,4
0003a4 1b01      	sub r16,r17
0003a5 9300 0065 	sts tpdu_size_rx,r16
         
0003a7 9468      	set
0003a8 f856      	bld appl_flag,6		;сообщить верхнему уровню > приняты даные
         
         ;rcall a_pr2
         
0003a9 94e8      	clt
0003aa f844      	bld tl_flag,4
         
          r_spdu9:
0003ab cf73      	rjmp session_exit
         
         
         ;------------------------------------------------------------------------------------------------
         ;------------------------------------------------------------------------------------------------
         
          close_session:			;закрыть текущую сессию
0003ac cf72      	rjmp session_exit
         
         ;------------------------------------------------------------------------------------------------
         ;------------------------------------------------------------------------------------------------
         
          spdu_to_host:				;сформировать и передать SPDU хосту
         ;--------------- Вывод служебного текста -------------------------------------
         ;	ldi zl,low(TransmittToHost*2)     ;print
         ;	ldi zh,high(TransmittToHost*2)
         ;	rcall print
         ;------------------------------------------------------------------------------
         
0003ad e0f0      	ldi zh,high(tpdu_buf)
0003ae e7e3      	ldi zl,low(tpdu_buf)
         
0003af 2700      	clr r16
0003b0 9300 0064 	sts tpdu_pntr,r16
0003b2 9100 0063 	lds r16,tpdu_size
0003b4 e014      	ldi r17,4
0003b5 0f01      	add r16,r17
0003b6 9300 0063 	sts tpdu_size,r16
         
0003b8 e900      	ldi r16,$90
0003b9 9301      	st z+,r16
0003ba e002      	ldi r16,$02
0003bb 9301      	st z+,r16
0003bc 9100 006b 	lds r16,(ss_num+0)
0003be 9301      	st z+,r16
0003bf 9100 006c 	lds r16,(ss_num+1)
0003c1 9301      	st z+,r16
         
0003c2 9468      	set
0003c3 f847      	bld tl_flag,7
         
          s_t_h1:					;**********************
0003c4 dcec      	rcall dekoder
0003c5 d00b      	rcall transport_layer
         ;ldi r16,'r'
         ;rcall ws
         
0003c6 fc47      	sbrc tl_flag,7
0003c7 cffc      	rjmp s_t_h1
         
0003c8 94e8      	clt
0003c9 f857      	bld appl_flag,7			;задача выполнена
         
         
0003ca cf54      	rjmp session_exit
         
         ;---------------------------------------------
         ;
         ;---------------------------------------------
         
          txTohost:
         
0003cb d005      	rcall transport_layer
0003cc fc47      	sbrc tl_flag,7
0003cd c002      	rjmp txTohostexit
         
0003ce 94e8      	clt
0003cf f857      	bld appl_flag,7				;задача выполнена
         
          txTohostexit:
0003d0 9508      	ret
         ;---------------------------------------------
         
         
         
         ;-----------------------------------------------------------------------------
         ;-----------------------------------------------------------------------------
         ;Транспортный уровень программы, Transport Layer
         ;-----------------------------------------------------------------------------
         ;-----------------------------------------------------------------------------
         
         ;-----------------------------------------------------------------------------
         ;Связь с подлежащими уровнями производится посредством флага appl_flag, 
         ;tl_flag, буфера TPDU_buf и указателя его размера TPDU_SIZE
         ;-----------------------------------------------------------------------------
         
          transport_layer:
         
0003d1 fe50      	sbrs appl_flag,0			;если уровень не пройден
0003d2 d0a0      	rcall link_layer	;inicializacija
         
0003d3 9b83      	sbis pind,zahvat			;если пришли данные от хоста
0003d4 c002      	rjmp transport_response
         
0003d5 d093      	rcall int_razr		;razreshit preryvanija
0003d6 9508      	ret
         
         
         ;разбираю что мне делать
         
          transport_response:
         
0003d7 fc42      	sbrc tl_flag,2				;идет доприем пакета
0003d8 c065      	rjmp transport_layer_exit
         
0003d9 fe43      	sbrs tl_flag,3
0003da c00f      	rjmp priem
         
0003db 94e8      	clt
0003dc f843      	bld tl_flag,3
0003dd d081      	rcall int_zapret
         
         ;разбираю что мне напередавали
0003de 9100 0062 	lds r16,tpdu_tag
         
0003e0 3802      	cpi r16,Tcreate_t_c	;установить соединение.Производится 1 раз
         				; при открытии сессии
0003e1 f051      	breq goto_active
         
0003e2 3a00      	cpi r16,Tdata_last		;пинг от хоста
0003e3 f109      	breq pull_data
         
0003e4 3801      	cpi r16,T_rcv			;начать передачу данных
0003e5 f109      	breq data_rcv
         
0003e6 3804      	cpi r16,T_delete		;удалить соединение
0003e7 f009      	breq del_tc
         
0003e8 c055      	rjmp transport_layer_exit
         
0003e9 c047      del_tc:	rjmp delete_tc
         
         
         ;если прерывание не наступило и в модуле есть данные
          priem:
0003ea d0af      	rcall prm_data
0003eb cfeb      	rjmp transport_response
         
         ;------------------------------------------------------------------------------------------------
         ;------------------------------------------------------------------------------------------------
         
         ;пришел Tcreate_t_c 
         ;нужно ответить на него Tc_t_c_reply
          goto_active:
         ;--------------- Вывод служебного текста -------------------------------------
         ;	ldi zl,low(txtNewConnection*2)     ;print
         ;	ldi zh,high(txtNewConnection*2)
         ;	rcall print
         ;------------------------------------------------------------------------------
         	
0003ec 9468      	set
0003ed f851      	bld appl_flag,1			;соединение установлено
         
0003ee 9100 0061 	lds r16,tc_id
0003f0 9300 0060 	sts my_tc_id,r16	;сохранить номер транспортного соединения
         
0003f2 e803      	ldi r16,Tc_t_c_reply
0003f3 9300 0062 	sts tpdu_tag,r16
         
0003f5 e004      	ldi r16,4
0003f6 9300 0063 	sts tpdu_size,r16
         
0003f8 e0f0      	ldi zh,high(tpdu_buf)			;пристегнуть T_SB
0003f9 e7e3      	ldi zl,low(tpdu_buf)
0003fa e800      	ldi r16,T_sb
0003fb 9301      	st z+,r16
0003fc e002      	ldi r16,2
0003fd 9301      	st z+,r16
0003fe 9100 0060 	lds r16,my_tc_id
000400 9301      	st z+,r16
000401 e000      	ldi r16,$0
000402 9301      	st z+,r16
         
000403 d0e3      	rcall send_data
000404 c039      	rjmp transport_layer_exit
         
         ;------------------------------------------------------------------------------------------------
         ;------------------------------------------------------------------------------------------------
         
         ;пришел Tdata_last без данных
         ;нужно ответить на него T_sb 
          pull_data:
         ;--------------- Вывод служебного текста -------------------------------------
         ;	ldi zl,low(Ping*2)     ;print
         ;	ldi zh,high(Ping*2)
         ;	rcall print
         ;ldi r16,'P'
         ;rcall ws
         ;------------------------------------------------------------------------------
000405 d03c      	rcall send_tsb
000406 c037      	rjmp transport_layer_exit
         
         
         ;------------------------------------------------------------------------------------------------
         ;------------------------------------------------------------------------------------------------
         
         ;пришел запрос на вычитывание моих данных
          data_rcv:
         ;--------------- Вывод служебного текста -------------------------------------
         ;	ldi zl,low(TxDannToHOST*2)     ;print
         ;	ldi zh,high(TxDannToHOST*2)
         ;	rcall print
         ;------------------------------------------------------------------------------
         
000407 fe47      	sbrs tl_flag,7		;если данных у меня нету, передаю пустой пакет
000408 c01f      	rjmp td_last
         
         
000409 ea00      	ldi r16,Tdata_last
00040a 9300 0062 	sts tpdu_tag,r16
         
00040c 9100 0060 	lds r16,my_tc_id
00040e 9300 0061 	sts tc_id,r16
         
000410 9100 0063 	lds r16,tpdu_size			;пристегнуть T_SB
000412 e0f0      	ldi zh,high(tpdu_buf)
000413 e7e3      	ldi zl,low(tpdu_buf)
000414 2711      	clr r17
000415 0fe0      	add zl,r16
000416 1ff1      	adc zh,r17
         
000417 e014      	ldi r17,4
000418 0f01      	add r16,r17
000419 9300 0063 	sts tpdu_size,r16
         
00041b e800      	ldi r16,T_sb
00041c 9301      	st z+,r16
00041d e002      	ldi r16,2
00041e 9301      	st z+,r16
00041f 9100 0060 	lds r16,my_tc_id
000421 9301      	st z+,r16
000422 e000      	ldi r16,$0
000423 9301      	st z+,r16
         
000424 d0c2      	rcall send_data				;передаю данные
         
000425 94e8      	clt
000426 f847      	bld tl_flag,7
         
000427 c016      	rjmp transport_layer_exit
         
         
          td_last:
         ;--------------- Вывод служебного текста -------------------------------------
         ;	ldi zl,low(TXEmptyPacket*2)     ;print
         ;	ldi zh,high(TXEmptyPacket*2)
         ;	rcall print
         ;------------------------------------------------------------------------------
         
000428 d036      	rcall int_zapret
000429 ea00      	ldi r16,Tdata_last
00042a 9300 0062 	sts tpdu_tag,r16
00042c 2700      	clr r16
00042d 9300 0063 	sts tpdu_size,r16
00042f d0b7      	rcall send_data
         
000430 c00d      	rjmp transport_layer_exit
         
         
         ;------------------------------------------------------------------------------------------------
         ;------------------------------------------------------------------------------------------------
         
         ;хост хочет разорвать транспортное соединение
          delete_tc:
000431 e805      	ldi r16,Td_t_c_reply
000432 9300 0062 	sts tpdu_tag,r16
         
000434 e000      	ldi r16,0
000435 9300 0063 	sts tpdu_size,r16
         
000437 d0af      	rcall send_data
         
000438 2700      	clr r16
000439 9300 0060 	sts my_tc_id,r16
         
00043b 94e8      	clt
00043c fa51      	bst appl_flag,1				;соединение закрыто
         
00043d c000      	rjmp transport_layer_exit
         
         
         ;------------------------------------------------------------------------------------------------
         ;------------------------------------------------------------------------------------------------
         
          transport_layer_exit:
00043e 9adc      	sbi porta,FR_pin
00043f d113      	rcall spi_addr3				;отпустить модуль
000440 d028      	rcall int_razr
000441 9508      	ret
         
         
         ;------------------------------------------------------------------------------------------------
         ;------------------------------------------------------------------------------------------------
         
         ;подпрограмма посылает ответ на пинг хоста
          send_Tsb:
         
000442 e800      	ldi r16,T_sb				;tag
000443 9300 0062 	sts tpdu_tag,r16
         
000445 9010 0063 	lds r1,tpdu_size			;сохранить длинну
000447 e001      	ldi r16,1				;длинна
000448 9300 0063 	sts tpdu_size,r16
         
00044a e0f0      	ldi zh,high(TPDU_buf)
00044b e7e3      	ldi zl,low(TPDU_buf)
00044c 8020      	ld r2,z
00044d 2700      	clr r16
00044e fa47      	bst tl_flag,7
00044f f907      	bld r16,7
000450 8300      	st z,r16				;SB_value
         
000451 2700      	clr r16
000452 9300 0064 	sts tpdu_pntr,r16
         
000454 9100 0060 	lds r16,my_tc_id
000456 9300 0061 	sts tc_id,r16
         
000458 d08e      	rcall send_data
         
         
000459 e0f0      	ldi zh,high(TPDU_buf)
00045a e7e3      	ldi zl,low(TPDU_buf)
00045b 8220      	st z,r2
00045c 9210 0063 	sts tpdu_size,r1
         
         ;--------------- Вывод служебного текста -------------------------------------
         ;	ldi zl,low(PingReply*2)     ;print zaderzhka opasna
         ;	ldi zh,high(PingReply*2)
         ;	rcall print
         ;ldi r16,'p'
         ;rcall ws
         ;
         ;mov r16,r4
         ;rcall wb
         ;mov r16,r5
         ;rcall wb
         ;mov r16,r6
         ;rcall wb
         ;rcall wk
         
         
         
         
         ;------------------------------------------------------------------------------
         
00045e 9508      	ret
         
         ;------------------------------------------------------------------------------------------------
         ;------------------------------------------------------------------------------------------------
         
         ;запретить все прерывания, особенно INT1
          int_zapret:
00045f 94f8      	cli
000460 930f      	push r16
         
000461 b70b      	in r16,gicr			;запретить прерывание
000462 770f      	cbr r16,(1<<int1)
000463 bf0b      	out gicr,r16
         
000464 b70a      	in r16,gifr			;сбросить флаг прерывания
000465 6800      	sbr r16,(1<<intf1)
000466 bf0a      	out gifr,r16
         
         	;cbi portd,led1
000467 910f      	pop r16
000468 9508      	ret
         
         ;------------------------------------------------------------------------------------------------
         ;------------------------------------------------------------------------------------------------
         
         ;разрешить все прерывания и INT1
          int_razr:
000469 930f      	push r16
         
00046a b70b      	in r16,gicr
00046b 6800      	sbr r16,(1<<int1)
00046c bf0b      	out gicr,r16
         
00046d b70a      	in r16,gifr			;сбросить флаги прерывания
00046e 6800      	sbr r16,(1<<intf1)
00046f bf0a      	out gifr,r16
         
         	;sbi portd,led1
000470 910f      	pop r16
000471 9478      	sei
000472 9508      	ret
         
         
         ;------------------------------------------------------------------------------------------------
         ;
         ;Подлежащий уровень, Link Layer
         ;
         ;инициализация модуля. Зависания можно не бояться, т.к. в случае сбоя,
         ;хост пересбрасывает САМ модуль и программа начинает работать с самого начала
         ;
         ;------------------------------------------------------------------------------------------------
         
          link_layer:
000473 94f8      	cli
         
         ;ldi r16,'L'
         ;rcall ws
         ;ldi r16,'['
         ;rcall ws
         
         
         
          wait_sr:					;жду команду SR
000474 9b9d      	sbis pinc,SR_pin	;(выдать размер буффера)
000475 cffe      	rjmp wait_sr
         
         ;ldi r16,'1'
         ;rcall ws
         
         
000476 98dc      	cbi porta,FR_pin			;захватить модуль
000477 d0db      	rcall spi_addr3
         
          wait_ZAHVAT:
000478 9983      	sbic pind,ZAHVAT			;ждать подтверждение захвата
000479 cffe      	rjmp wait_ZAHVAT
         
         ;ldi r16,'2'
         ;rcall ws
         
         
00047a e012      	ldi r17,2				;передать размер
00047b e002      	ldi r16,2
00047c d0b4      	rcall spi_pdbyte
         
00047d e010      	ldi r17,0				;передать данные старший байт
00047e e000      	ldi r16,$0
00047f d0b1      	rcall spi_pdbyte
         
000480 e010      	ldi r17,0
000481 e800      	ldi r16,buf_size			;передать данные младший байт
000482 d0ae      	rcall spi_pdbyte
         
         
000483 e012      	ldi r17,2				;перезагрузка счетчика
000484 e002      	ldi r16,2
000485 d0ab      	rcall spi_pdbyte
         
000486 9add      	sbi porta,DA_pin			;есть данные
000487 d0cb      	rcall spi_addr3
000488 9adc      	sbi porta,FR_pin			;отпустить модуль
000489 d0c9      	rcall spi_addr3
         
         
          wait_memwrite:					;жду пока данные передадутся
00048a 99ce      	sbic pina,DA_out
00048b cffe      	rjmp wait_memwrite
         
00048c 98dd      	cbi porta,DA_pin	;net dannyh
         
         ;ldi r16,'3'
         ;rcall ws
         
          wait_swrite:
00048d 9983      	sbic pind,ZAHVAT		;жду когда мне передадут объем ОЗУ
00048e cffe      	rjmp wait_swrite
         
          wait_swrite1:
00048f 999e      	sbic pinc,HC_pin			;хост отпустил модуль
000490 cffe      	rjmp wait_swrite1
         
         
         
000491 9adc      	sbi porta,FR_pin
000492 d0c0      	rcall spi_addr3				;отпустить модуль
         
         
         ;ldi r16,'4'
         ;rcall ws
         ;ldi r16,']'
         ;rcall ws
         
000493 9468      	set
000494 f850      	bld appl_flag,0				;link layer успешно пройден
         
000495 2700      	clr r16
000496 9300 0060 	sts my_tc_id,r16
         
000498 dfd0      	rcall int_razr
000499 9508      	ret
         
         
         ;----------------------------------------------------------------------------
         ;Может вызываться по внешнему прерыванию (вывод INT1).
         ;Прием информации от хоста, вычитывание ее в буфер ОЗУ, автоматическая склейка
         ;нарезанных блоков, уровень Transport Layer
         ;
         ;Входящие данные - прерывание INT1
         ;Исходящие данные: данные в буфере приема, 
         ;			[flag,3] - конец процедуры
         ;			[flag,2] - идет склейка блока данных
         ;----------------------------------------------------------------------------
          prm_data:
00049a 94f8      	cli 
00049b b63f      	in s_reg,sreg
00049c 92df      	push r13
00049d 92ef      	push r14
00049e 92ff      	push r15
00049f 930f      	push r16
0004a0 931f      	push r17
0004a1 93ff      	push zh
0004a2 93ef      	push zl
         
         
0004a3 98dd      	cbi porta,DA_pin
0004a4 dfba      	rcall int_zapret		;запрещаю прерывания
         
         
         ;ldi r16,$0d
         ;rcall ws
         ;ldi r16,$0a
         ;rcall ws
         ;ldi r16,'R'
         ;rcall ws
         
          prm_d0:
0004a5 999e      	sbic pinc,HC_pin		;жду окончания сеанса
0004a6 cffe      	rjmp prm_d0
         
0004a7 98dc      	cbi porta,FR_pin		;переключаю модуль на себя
         
0004a8 e012      	ldi r17,2			;читать кол-во байт по приему
0004a9 d0b0      	rcall spi_pmbyte
         ;rcall wb
0004aa 2300      	tst r16				;кол-во данных = 0!
0004ab f419      	brne prm_d1
0004ac 9adc      	sbi porta,FR_pin
0004ad d0a5      	rcall spi_addr3			;отпустить модуль
0004ae c02e      	rjmp prm_exit
         
         
          prm_d1:
0004af e012      	ldi r17,2		;обнулить счетчик адреса альтеры
0004b0 d080      	rcall spi_pdbyte
         
0004b1 d0bb      	rcall spi_memrd		;t_c_id
         ;rcall wb
0004b2 9110 0060 	lds r17,my_tc_id		
0004b4 2311      	tst r17			;если 0, то принимать любые пакеты
0004b5 f029      	breq prm_d4
0004b6 1701      	cp r16,r17
0004b7 f019      	breq prm_d4
0004b8 9adc      	sbi porta,FR_pin
0004b9 d099      	rcall spi_addr3		;отпустить модуль
0004ba c022      	rjmp prm_exit		;если номер не мой, то не принимаю пакет
         
          prm_d4:
0004bb d0b1      	rcall spi_memrd				;M/L
0004bc 2fe0      	mov zl,r16
         ;rcall wb
         
0004bd d0af      	rcall spi_memrd				;tpdu_tag
0004be 9300 0062 	sts tpdu_tag,r16
         ;rcall wb
         
0004c0 d0ac      	rcall spi_memrd				;length_field
         ;rcall wb
0004c1 950a      	dec r16
0004c2 2ef0      	mov r15,r16			;счетчик длинны чистой информации
         
0004c3 d0a9      	rcall spi_memrd
0004c4 9300 0061 	sts tc_id,r16
         ;rcall wb
         
0004c6 24dd      	clr r13
0004c7 20ff      	tst r15
0004c8 f061      	breq prm_d7			;если данных больше нет
         
         
0004c9 24dd      	clr r13
0004ca 24ee      	clr r14
0004cb e0f0      	ldi zh,high(TPDU_buf)
0004cc e7e3      	ldi zl,low(TPDU_buf)
          prm_d6:					;читаю данные, ложу в буфер
0004cd d09f      	rcall spi_memrd
0004ce 9301      	st z+, r16
         ;rcall wb
0004cf 94d3      	inc r13				;size
0004d0 94e3      	inc r14				;pntr
0004d1 94fa      	dec r15
0004d2 f7d1      	brne prm_d6
         
0004d3 92e0 0066 	sts TPDU_pntr_rx,r14		;сохранить указатель
         
         
          prm_d7:
0004d5 92d0 0065 	sts TPDU_size_rx,r13		;размер принятых данных
0004d7 20dd      	tst r13
0004d8 f011      	breq prm_d8
         
          prm_db:
0004d9 9468      	set				;если принял некоторое кол-во данных
0004da f844      	bld tl_flag,4
         
          prm_d8:
0004db 9468      	set
0004dc f843      	bld tl_flag,3			;полностью приняты
         
          prm_exit:
         
         ; ldi r16,$0d
         ; out udr,r16
         ; rcall uart_wait
         ; ldi r16,$0a
         ; out udr,r16
         ; rcall uart_wait
         
0004dd 91ef      	pop zl
0004de 91ff      	pop zh
0004df 911f      	pop r17
0004e0 910f      	pop r16
0004e1 90ff      	pop r15
0004e2 90ef      	pop r14
0004e3 90df      	pop r13
0004e4 be3f      	out sreg,s_reg
0004e5 9478      	sei
0004e6 9518      	reti
         
         
         
         
         ;----------------------------------------------------------------------------
         ; Процедура обработки прерывания по таймеру 0. Проверяем есть ли пакет на прием
         ; и, если есть, принимаем его. 
         ;----------------------------------------------------------------------------
         ;.equ bytes = 1;88		;количество принимаемых байт
         ;.equ bits = 8 
         
         ;recivePacket:
         ;
         ;	reti
         
         ;----------------------------------------------------------------------------
         ;Передача информации хосту, нарезка данных на нужное число кусочков.
         ;уровень Transport Layer
         ;
         ;Входящие данные: TPDU_PNTR, TPDU_SIZE, TPDU_TAG, TC_ID, TPDU_BUF, [Flag,5]
         ;Исходящие данные: нет
         ;
         ;----------------------------------------------------------------------------
          send_data:
         ;ldi r16,$0d
         ;rcall ws
         ;ldi r16,$0a
         ;rcall ws
         ;
         ;ldi r16,'T'
         ;rcall ws
         
0004e7 9100 0063 	lds r16,tpdu_size
         ;rcall wb
         
         ;вычисляю размер посылки
         
0004e9 9100 0063 	lds r16,tpdu_size
0004eb e015      	ldi r17,5	;(tc_id)+(m/l)+(tpdu_tag)+(length_field)+(tc_id)
0004ec 0f01      	add r16,r17
0004ed e012      	ldi r17,2			;передать размер посылки
         ;rcall wb
0004ee d042      	rcall spi_pdbyte
         
         
         ;загрузка данных в память альтеры
         
0004ef 9100 0060 	lds r16,my_tc_id			;tc_id
         ;rcall wb
0004f1 2711      	clr r17
0004f2 d03e      	rcall spi_pdbyte
         
         
0004f3 2700      	clr r16					;m/l
0004f4 fa45      	bst tl_flag,5
0004f5 f907      	bld r16,7
         ;rcall wb
0004f6 d03a      	rcall spi_pdbyte
         
         
0004f7 9100 0062 	lds r16,tpdu_tag			;tpdu_tag
         ;rcall wb
0004f9 d037      	rcall spi_pdbyte
         
         
0004fa 9100 0063 	lds r16,tpdu_size			;tpdu_size
0004fc 3004      	cpi r16,4
0004fd f010      	brlo not_corr
0004fe e024      	ldi r18,4
0004ff 1b02      	sub r16,r18
          not_corr:
000500 9503      	inc r16
         ;rcall wb
000501 d02f      	rcall spi_pdbyte
         
         
000502 9100 0060 	lds r16,my_tc_id			;tc_id
         ;rcall wb
000504 d02c      	rcall spi_pdbyte
         
         
000505 9100 0063 	lds r16,tpdu_size
000507 2300      	tst r16
000508 f411      	brne sd5				;если данных нет
         
000509 d014      	rcall wait_transmission	
00050a c00f      	rjmp send_data_exit
         
         
         ;передаю блок данных
         
          sd5:
         
00050b 9120 0063 	lds r18,tpdu_size
00050d e0f0      	ldi zh,high(TPDU_buf)		;на каком адресе я остановился
00050e e7e3      	ldi zl,low(TPDU_buf)
         
          sd6:
00050f 9101      	ld r16,z+
000510 2711      	clr r17
         ;rcall wb
000511 d01f      	rcall spi_pdbyte
000512 952a      	dec r18					;буфер переполнен
000513 f7d9      	brne sd6
         
000514 d009      	rcall wait_transmission			;передать данные
         
000515 2700      	clr r16
000516 9300 0063 	sts tpdu_size,r16
000518 9300 0065 	sts tpdu_size_rx,r16
         
          send_data_exit:
         
         ;ldi r16,$0d
         ;rcall ws
         ;ldi r16,$0a
         ;rcall ws
         
00051a 94e8      	clt
00051b f845      	bld tl_flag,5
00051c f841      	bld tl_flag,1
00051d 9508      	ret
         
         
         
         
         ;подпрограмма разрешает хосту вычитать данные и ждет пока эта процедура
         ; завершится
         ;Сильно тормозит !!!! ******************************
          wait_transmission:
         
00051e e012      	ldi r17,2			;перезагрузка счетчика адреса
00051f d03a      	rcall spi_pmbyte
000520 e012      	ldi r17,2
000521 d00f      	rcall spi_pdbyte
         
000522 9add      	sbi porta,DA_pin				;есть данные
000523 d02f       	rcall spi_addr3
         
000524 9adc      	sbi porta,FR_pin				;отпустить модуль
000525 d02d       	rcall spi_addr3
         
         	;Нанные передаются Хосту
000526 9468      	set
000527 f846      	bld tl_flag,6
         
         
          wt1:						;жду пока данные передадутся
         ;	sbic pina,DA_out			;ждем пока вычитают данные
         ;	rjmp wt1
         ;sbi testpin,testpinb	;пин для настройщика
         ;	sbic pinc,HC_pin				;жду окончания сеанса
         ;	rjmp wt1
         
         ;	cbi porta,DA_pin			; снимаем признак "Есть данные на передачу"
         ;cbi testpin,testpinb	;пин для настройщика
         
000528 9508      	ret
         ;-----------------------------------------------------------------------------
         ;Проверяем вычитал ли хост данные и если ДА - снимаем признаки передачи
         ;-----------------------------------------------------------------------------
          tstTXdnn:
         ;	sbic pina,DA_out		;ждем пока вычитают данные
         ;	rjmp tstTXdnnExit
         ;ldi r16,'^'
         ;rcall ws
         
000529 99cb      	sbic pina,read_end
00052a c005      	rjmp tstTXdnnExit;poschitaem ;tstTXdnnExit
         
         
         ;ldi r16,'@'
         ;rcall ws
         
         
00052b 999e      	sbic pinc,HC_pin	;жду окончания сеанса
00052c c003      	rjmp tstTXdnnExit
         ;poschitali:
         
00052d 98dd      	cbi porta,DA_pin	; снимаем признак "Есть данные на передачу"
00052e 94e8      	clt							;
00052f f846      	bld tl_flag,6
         
         
          tstTXdnnExit:
000530 9508      	ret
         
         ;poschitaem:
         ;	dec r9
         ;	brne tstTXdnnExit
         ;	ldi r16,5
         ;	mov r9,r16
         ;ldi r16,'%'
         ;rcall ws
         ;
         ;	rjmp poschitali
         
         ;-----------------------------------------------------------------------------
         ;Физический уровень программы
         ;-----------------------------------------------------------------------------
         
         ;----------------------------------------------------------------------------
         ;Передача байта по SPI интерфейсу
         ;
         ;Входящие данные R17 - адрес
         ;Исходящие данные - нет, содержимое R16 меняется
         ;----------------------------------------------------------------------------
          spi_pdbyte:
000531 932f      	push r18
000532 933f      	push r19
000533 2f31      	mov r19,r17
000534 703f      	andi r19,$0f
         
000535 2f21      	mov r18,r17
000536 9522      	swap r18
000537 7f20      	andi r18,$f0
000538 2b23      	or r18,r19
         
000539 ea36      	ldi r19,$a6
00053a 2723      	eor r18,r19
         
00053b 2702      	eor r16,r18
         
00053c 931f      	push r17
00053d 930f      	push r16			;r17-adres,r16-danye,	portit r16
00053e d00a      	rcall sipdbyte
00053f 9aab      	sbi str_a_spi,str_a_spib
000540 98ab      	cbi str_a_spi,str_a_spib
000541 911f      	pop r17
000542 d006      	rcall sipdbyte
000543 9aaa      	sbi strWR_spi,strWR_spib
000544 98aa      	cbi strWR_spi,strWR_spib
000545 911f      	pop r17
000546 913f      	pop r19
000547 912f      	pop r18
000548 9508      	ret
         
         
          sipdbyte:
000549 e008      	ldi r16,8		;1
         
          sipdbyt1:
00054a 98ac      	cbi do_spi,do_spib	;2
00054b fd10      	sbrc r17,0		;1		13*8=104+8=112 s vyzovom
00054c 9aac      	sbi do_spi,do_spib	;2
         
00054d 9aa8      	sbi clkspi,clkspib	;2		pri 8MHz - 14 us
00054e 98a8      	cbi clkspi,clkspib	;2
00054f 9517      	ror r17			;1
         
000550 950a      	dec r16			;1
000551 f7c1      	brne sipdbyt1		;2
000552 9508      	ret			;4	+3 rcall
         
         
         ;----------------------------------------------------------------------------
         ;вспомогательная программа прописывает только адрес в SPI интерфейс ╣3 для фиксации
         ;флагов состояния в альтере
         ;
         ;портит R16 и R17
         ;----------------------------------------------------------------------------
          spi_addr3:
000553 e013      	ldi r17,3
000554 dff4      	rcall sipdbyte
000555 9aab      	sbi str_a_spi,str_a_spib	;фиксация адреса
000556 98ab      	cbi str_a_spi,str_a_spib
         
000557 9aaa      	sbi strWR_spi,strWR_spib	;фиксация флагов
000558 98aa      	cbi strWR_spi,strWR_spib
000559 9508      	ret
         
         
         ;----------------------------------------------------------------------------
         ;Прием байта по SPI интерфейсу
         ;
         ;Входящие данные R17 - адрес
         ;Исходящие данные R16 - данные
         ;----------------------------------------------------------------------------
          spi_pmbyte:
00055a 931f      	push r17			;r17-adres, r16-dannye
00055b dfed      	rcall sipdbyte			;112
00055c 9aab      	sbi str_a_spi,str_a_spib
00055d 0000      	nop
00055e 0000      	nop
         
          spi_pmbyte3:
00055f 9aa8      	sbi clkspi,clkspib	;strob v vyhodnoj sdvig. registr altery
000560 98ab      	cbi str_a_spi,str_a_spib
000561 98a8      	cbi clkspi,clkspib
         
000562 e018      	ldi r17,8
          spi_pmbyte1:
000563 9488      	clc			;1	8*11=88+20=108+112=220/8MHz=27.5us
000564 9b99      	sbis di_spi,di_spib;	com r16	;1
000565 9408      	sec			;1
000566 9507      	ror r16			;1
000567 9aa8      	sbi clkspi,clkspib	;2
000568 98a8      	cbi clkspi,clkspib	;2
000569 951a      	dec r17			;1
00056a f7c1      	brne spi_pmbyte1	;2
         ;	swap r16
         ;	ldi r17,$69
         ;	eor r16,r17
00056b 911f      	pop r17			
00056c 9508      	ret
         
         ;----------------------------------------------------------------------------
         ;Чтение байта ОЗУ по SPI интерфейсу
         ;
         ;Входящие данные нет
         ;Исходящие данные R16 - данные
         ;----------------------------------------------------------------------------
          spi_memrd:
00056d 931f      	push r17
00056e e015      	ldi r17,5
00056f dfd9      	rcall sipdbyte
000570 9aab      	sbi str_a_spi,str_a_spib	;загрузка буфера адреса
000571 9aaa      	sbi strWR_spi,strWR_spib	;инкремент счетчика адреса ОЗУ
000572 98aa      	cbi strWR_spi,strWR_spib
000573 cfeb      	rjmp spi_pmbyte3
         
         
         ;-----------------------------------------------------------------------------
         ;Подпрограммы задержек 5 мкс, 25 мкс, 50 мкс
         ;
         ;используемые регистры: нет
         ;Входящие  данные:  нет
         ;Исходящие данные:  нет
         ;-----------------------------------------------------------------------------
         ;delay1s:
         ;	ldi xl,low(10000)			;пауза 1 сек
         ;	ldi xh,high(10000)
         ;d1s:	rcall delay50us
         ;	rcall delay50us
         ;	sbiw xl,1
         ;	brne d1s
         ;	ret
         ;
         ;
         ;delay50us:
         ;	push r22
         ;	ldi r22,130				;50 мкс
         ;	rjmp d5us_loop
         ;
         ;delay25us:
         ;	push r22
         ;	ldi r22,64				;25 мкс
         ;	rjmp d5us_loop
         ;
         ;delay5us:
         ;	push r22
         ;	ldi r22,10				;[(10+3*r22)*0.125]uS = 5 мкс
         ;d5us_loop:
         ;	dec r22
         ;	brne d5us_loop
         ;	pop r22
         ;	ret
         ;
         ;delay2us:
         ;	push r22
         ;	ldi r22,2				;[(10+3*r22)*0.125]uS = 2 мкс
         ;	rjmp d5us_loop
         
         
         ;-----------------------------------------------------------------------------------
         ;запись и чтение данных в EEPROM
         ;-----------------------------------------------------------------------------------
          mwr:
000574 99e1      	sbic eecr,eewe	;r25:r24-adres r16-dannye
000575 cffe      	rjmp mwr
         
000576 bb9f      	out eearh,r25
000577 bb8e      	out eearl,r24
000578 bb0d      	out eedr,r16
000579 9ae2      	sbi eecr,eemwe
00057a 9ae1      	sbi eecr,eewe
00057b 9508      	ret
         
          mrd:
00057c 99e1      	sbic eecr,eewe	;r25:r24-adres r16-dannye
00057d cffe      	rjmp mrd
00057e bb9f      	out eearh,r25
00057f bb8e      	out eearl,r24
000580 9ae0      	sbi eecr,eere	;4 takta-ostanov
000581 e00f      	ldi r16,$0f
000582 bb0f      	out eearh,r16
000583 ef0f      	ser r16
000584 bb0e      	out eearl,r16
000585 b30d      	in r16,eedr
000586 9508      	ret
         
         
         
         ;-----------------------------------------------------------------------------------
         ;Процедура загрузки альтеры
         ;-----------------------------------------------------------------------------------
          altera_configure:
         
         ;--------------- Вывод служебного текста -------------------------------------
         ;	ldi zl,low(AlteraLoading*2)     ;print
         ;	ldi zh,high(AlteraLoading*2)
         ;	rcall print
         ;------------------------------------------------------------------------------
         
000587 98d8      	cbi porta,nConfig
000588 dcd4      	rcall delay5us
000589 dcd3      	rcall delay5us
00058a 9ad8      	sbi porta,nConfig
         
00058b e3b7      	ldi xh,high(zero_burst_bits*2)
00058c eca2      	ldi xl,low(zero_burst_bits*2)
         	
00058d e0db      	ldi yh,high(packed_data*2)
00058e edc8      	ldi yl,low(packed_data*2)
         
          wait_status:
00058f 9984      	sbic pind,nStatus
000590 cffe      	rjmp wait_status
         
000591 e031      	ldi r19,1
         
          altera_zagr:
000592 9985      	sbic pind,conf_done
000593 c018      	rjmp altera_zagr_exit
         
000594 2333      	tst r19
000595 f411      	brne azagr1
         
000596 9611      	adiw xl,1	
000597 e031      	ldi r19,1
         
          azagr1:
000598 01fe      	movw zl,yl
000599 95c8      	lpm
00059a 2d10      	mov r17,r0	;	 r17,z			;загрузить байт
00059b 9621      	adiw yl,1
00059c 01fd      	movw zl,xl
00059d 95c8      	lpm
00059e 2d00      	mov r16,r0	;r16,z			;загрузить указатель
00059f 2303      	and r16,r19
0005a0 f419      	brne nulls
0005a1 2f01      	mov r16,r17
0005a2 d00f      	rcall spi_pd		;передаю обычный байт
0005a3 c005      	rjmp azagr2
         
          nulls:				;передача нулевых байт
0005a4 2700      	clr r16
0005a5 d00c      	rcall spi_pd
          n_loop:
0005a6 d00b      	rcall spi_pd
0005a7 951a      	dec r17
0005a8 f7e9      	brne n_loop
         
          azagr2:
0005a9 9488      	clc
0005aa 1f33      	rol r19
0005ab cfe6      	rjmp altera_zagr
         
          altera_zagr_exit:
         
0005ac e015      	ldi r17,5			;5 пустых байт для включения альтеры
0005ad 2700      	clr r16
          az_ex_loop:
0005ae d003      	rcall spi_pd
0005af 951a      	dec r17
0005b0 f7e9      	brne az_ex_loop
         
0005b1 9508      	ret
         
         
         
         
         ;передаю байт в альтеру. 
         ;Данные младшим битом вперед, защелкивание по фронту тактов.
          spi_pd:
0005b2 e028      	ldi r18,8
          spi_loop:
0005b3 98da      	cbi porta,data0
0005b4 fd00      	sbrc r16,0
0005b5 9ada      	sbi porta,data0
         	
0005b6 9ad9      	sbi porta,dclk
0005b7 98d9      	cbi porta,dclk
         
0005b8 9506      	lsr r16
         
0005b9 952a      	dec r18
0005ba f7c1      	brne spi_loop
0005bb 9508      	ret
         
         ;-----------------------------------------------------------------------------------
         ;обработка PID-кодов текущего канала
         ;
         ;возвращает в регистре R19 коды для каждого из восьми PIDов: бит = 1 если декодирование 
         ;разрешено и 0, если поток запрещено декодировать. Номер PID (по счету) соответствует 
         ;номеру бита. В регистре R20 возвращается команда для общего декодирования канала 
         ;(CA_enable_flag): код 81h - декодирование разрешено, F1h - декодирование запрещено
         ;-----------------------------------------------------------------------------------
         
          PID_analyze:
         
         ;пока зво аабпезавлвао найденнле пЁдл
         
0005bc 9110 0177 	lds r17,num_pids
0005be 2311      	tst r17
0005bf f409      	brne pid_1
0005c0 9508      	ret
         
          pid_1:
0005c1 e0d3      	ldi yh,high(pid_buf)
0005c2 e5c0      	ldi yl,low(pid_buf)
         
         ;ldi r16,'('
         ;rcall ws
         
          pid_2:
0005c3 9109      	ld r16,y+
         ;rcall wb
0005c4 9109      	ld r16,y+
         ;rcall wb
0005c5 951a      	dec r17
0005c6 f7e1      	brne pid_2
         
         ;ldi r16,')'
         ;rcall ws
         
0005c7 e841      ldi r20,$81				;разрешаю декодирование программы
0005c8 ef3f      ldi r19,0b11111111		;разрешаю декодирование обеих потоков
         
0005c9 9508      	ret
         
         
         
         
         
         ;-----------------------------------------------------------------------------
         ;Отладочные порграммы и мониторы
         ;-----------------------------------------------------------------------------
         
         ;-----------------------------------------------------------------------------
         ;Передача байта через UART в виде ASCII.
         ;
         ;используемые регистры: r16, r17
         ;Входящие  данные:  r16
         ;Исходящие данные:  нет
         ;-----------------------------------------------------------------------------
         
         
         ;;распечатка APDU по передаче
         ;a_pr1:
         ;	cli
         ;	ldi r16,'T'
         ;	out udr,r16
         ;	rcall uart_wait
         ;	ldi r16,'*'
         ;	out udr,r16
         ;	rcall uart_wait
         ;
         ;
         ;	ldi zh,high(apdu_buf)
         ;	ldi zl,low(apdu_buf)
         ;	ldd r18,z+3
         ;	inc r18
         ;	inc r18
         ;	inc r18
         ;
         ;	mov r16,r18
         ;	rcall wb
         ;
         ;	ldi r16,'>'
         ;	out udr,r16
         ;	rcall uart_wait
         ;
         ;a_l1:
         ;	ld r16,z+
         ;	rcall wb
         ;	dec r18
         ;	brne a_l1
         ;
         ;
         ;	ldi r16,$0d
         ;	out udr,r16
         ;	rcall uart_wait
         ;	ldi r16,$0a
         ;	out udr,r16
         ;	rcall uart_wait
         ;
         ;	sei
         ;	ret
         
         
         ;распечатка APDU по приему
         ;a_pr2:
         ;;	cli
         ;	ldi r16,'R'
         ;	out udr,r16
         ;	rcall uart_wait
         ;	ldi r16,'*'
         ;	out udr,r16
         ;	rcall uart_wait
         ;
         ;	ldi zh,high(apdu_buf)
         ;	ldi zl,low(apdu_buf)
         ;
         ;	ldd r18,z+3
         ;	inc r18
         ;	inc r18
         ;	inc r18
         ;
         ;
         ;	mov r16,r18
         ;	rcall wb
         ;
         ;	ldi r16,'>'
         ;	out udr,r16
         ;	rcall uart_wait
         ;
         ;a_l2:
         ;	ld r16,z+
         ;	rcall wb
         ;	dec r18
         ;	brne a_l2
         ;
         ;
         ;	ldi r16,$0d
         ;	out udr,r16
         ;	rcall uart_wait
         ;	ldi r16,$0a
         ;	out udr,r16
         ;	rcall uart_wait
         ;
         ;;	sei
         ;	ret
         ;
         ;-----------------------------------------------------------------------------
         ;-----------------------------------------------------------------------------
         ;Всякие таблицы и константы
         ;-----------------------------------------------------------------------------
         ;-----------------------------------------------------------------------------
         
          .cseg
         
         
         ;буфера пакетов APDU (первый байт - длинна, последующие - информация)
         
0005ca      profile_enqury:	.db	  4, $9f, $80, $10, $00		,0
0005ca 9f04
0005cb 1080
0005cc 0000
         
         ;profile_reply:	.db	 24, $9f, $80, $11, $14, $00, $02, $00 
         ;			.db	$41, $00, $03, $00, $41, $00, $20, $00
         ;			.db	$41, $00, $24, $00, $41, $00, $40, $00
         ;			.db	$41
         
0005cd      profile_reply:	.db	 12, $9f, $80, $11, $08, $00, $02, $00 
0005cd 9f0c
0005ce 1180
0005cf 0008
0005d0 0002
          			.db	$41, $00, $03, $00, $41		,0
0005d1 0041
0005d2 0003
0005d3 0041
         
         
         ;appl_info:		.db	 17, $9f, $80, $21, $0d, $01, $00, $01 
         ;			.db	$00, $01, $07, "STV 2.0"
         
0005d4      appl_info:		.db	 32, $9f, $80, $21, 28, $01, $00, $01 
0005d4 9f20
0005d5 2180
0005d6 011c
0005d7 0100
          			.db	$00, $01, 22, "STV 2.03 ser.N=0000000"
0005d8 0100
0005d9 5316
0005da 5654
0005db 3220
0005dc 302e
0005dd 2033
0005de 6573
0005df 2e72
0005e0 3d4e
0005e1 3030
0005e2 3030
0005e3 3030
0005e4 0030
         	;первый - длина всей посылки, 11й- длина выводимого текста
         
         
0005e5      ca_info:		.db	  6, $9f, $80, $31, $02, $d0, $12	,0		;наша система
0005e5 9f06
0005e6 3180
0005e7 d002
0005e8 0012
         ;ca_info:		.db	  6, $9f, $80, $31, $02, $05, $00		;Viacess
         
0005e9      ca_pmt_reply:	.db	  4, $9f, $80, $33, $04		,0
0005e9 9f04
0005ea 3380
0005eb 0004
         					;остальное дописываю сам.
         					; поле длинны прописано вплоть до 
         					;(elementary_pid)
         
         ;*****************************************************************************
         
         ;.include "MessagesCAM6.asm"		;файл для вывода сообщений 
          .include "altera.asm"				;упакованный файл прошивки
         ; ╙яръютрээр  яЁю°штър └ы№ЄхЁ√ яюфуюЄютыхэр шч Їрщыр
         ; CAM_MODULE.rbf
         
          packed_data:
          	.db	$FF, $FF, $62, $7F, $36, $00, $FF, $FF
0005ec ffff
0005ed 7f62
0005ee 0036
0005ef ffff
          	.db	$FF, $FF, $FF, $FF, $FF, $FF, $FF, $FF
0005f0 ffff
0005f1 ffff
0005f2 ffff
0005f3 ffff
          	.db	$FF, $FF, $FF, $FF, $FF, $FF, $FF, $FF
0005f4 ffff
0005f5 ffff
0005f6 ffff
0005f7 ffff
          	.db	$FF, $FF, $FF, $FF, $FF, $FF, $FF, $FF
0005f8 ffff
0005f9 ffff
0005fa ffff
0005fb ffff
          	.db	$FF, $FF, $FF, $FF, $FF, $FF, $FF, $FF
0005fc ffff
0005fd ffff
0005fe ffff
0005ff ffff
          	.db	$FF, $FF, $FF, $FF, $FF, $FF, $FF, $FF
000600 ffff
000601 ffff
000602 ffff
000603 ffff
          	.db	$FF, $FF, $FF, $FF, $FF, $FF, $FF, $FF
000604 ffff
000605 ffff
000606 ffff
000607 ffff
          	.db	$FF, $00, $0C, $14, $01, $30, $50, $04
000608 00ff
000609 140c
00060a 3001
00060b 0450
          	.db	$C8, $80, $11, $28, $02, $20, $0A, $44
00060c 80c8
00060d 2811
00060e 2002
00060f 440a
          	.db	$81, $A8, $23, $00, $06, $0F, $10, $07
000610 a881
000611 0023
000612 0f06
000613 0710
          	.db	$62, $40, $14, $88, $02, $03, $45, $E0
000614 4062
000615 8814
000616 0302
000617 e045
          	.db	$08, $80, $01, $30, $00, $06, $40, $14
000618 8008
000619 3001
00061a 0600
00061b 1440
          	.db	$18, $80, $FB, $00, $12, $A0, $02, $48
00061c 8018
00061d 00fb
00061e a012
00061f 4802
          	.db	$80, $0A, $70, $01, $2A, $40, $05, $50
000620 0a80
000621 0170
000622 402a
000623 5005
          	.db	$01, $2A, $40, $05, $54, $00, $09, $0F
000624 2a01
000625 0540
000626 0054
000627 0f09
          	.db	$A8, $00, $15, $A0, $02, $54, $80, $04
000628 00a8
000629 a015
00062a 5402
00062b 0480
          	.db	$A8, $00, $15, $40, $02, $48, $00, $09
00062c 00a8
00062d 4015
00062e 4802
00062f 0900
          	.db	$A0, $02, $24, $00, $85, $36, $80, $F9
000630 02a0
000631 0024
000632 3685
000633 f980
          	.db	$36, $80, $F9, $06, $14, $2E, $80, $A8
000634 8036
000635 06f9
000636 2e14
000637 a880
          	.db	$1D, $01, $17, $80, $E8, $00, $00, $34
000638 011d
000639 8017
00063a 00e8
00063b 3400
          	.db	$8A, $20, $00, $02, $01, $40, $00, $00
00063c 208a
00063d 0200
00063e 4001
00063f 0000
          	.db	$84, $41, $20, $00, $00, $92, $20, $04
000640 4184
000641 0020
000642 9200
000643 0420
          	.db	$00, $01, $0F, $C0, $24, $02, $08, $00
000644 0100
000645 c00f
000646 0224
000647 0008
          	.db	$00, $20, $00, $04, $01, $20, $C1, $02
000648 2000
000649 0400
00064a 2001
00064b 02c1
          	.db	$00, $49, $10, $80, $AE, $00, $00, $20
00064c 4900
00064d 8010
00064e 00ae
00064f 2000
          	.db	$00, $02, $02, $05, $04, $04, $16, $C0
000650 0200
000651 0502
000652 0404
000653 c016
          	.db	$09, $20, $00, $C0, $80, $00, $00, $01
000654 2009
000655 c000
000656 0080
000657 0100
          	.db	$81, $F8, $00, $00, $30, $00, $04, $E0
000658 f881
000659 0000
00065a 0030
00065b e004
          	.db	$00, $00, $C0, $00, $70, $00, $08, $60
00065c 0000
00065d 00c0
00065e 0070
00065f 6008
          	.db	$00, $08, $00, $00, $E0, $11, $20, $03
000660 0800
000661 0000
000662 11e0
000663 0320
          	.db	$18, $00, $00, $80, $01, $00, $80, $07
000664 0018
000665 8000
000666 0001
000667 0780
          	.db	$30, $00, $1C, $00, $02, $81, $AE, $00
000668 0030
000669 001c
00066a 8102
00066b 00ae
          	.db	$00, $30, $08, $10, $D2, $03, $68, $00
00066c 3000
00066d 1008
00066e 03d2
00066f 0068
          	.db	$20, $24, $00, $04, $00, $10, $D8, $11
000670 2420
000671 0400
000672 1000
000673 11d8
          	.db	$10, $03, $08, $00, $00, $80, $45, $00
000674 0310
000675 0008
000676 8000
000677 0045
          	.db	$42, $06, $00, $00, $1A, $00, $00, $80
000678 0642
000679 0000
00067a 001a
00067b 8000
          	.db	$A7, $00, $00, $30, $01, $22, $C0, $84
00067c 00a7
00067d 3000
00067e 2201
00067f 84c0
          	.db	$00, $00, $13, $61, $42, $24, $80, $05
000680 0000
000681 6113
000682 2442
000683 0580
          	.db	$31, $10, $20, $C8, $02, $11, $42, $02
000684 1031
000685 c820
000686 1102
000687 0242
          	.db	$60, $81, $00, $00, $84, $20, $02, $16
000688 8160
000689 0000
00068a 2084
00068b 1602
          	.db	$04, $18, $58, $10, $21, $00, $A8, $00
00068c 1804
00068d 1058
00068e 0021
00068f 00a8
          	.db	$00, $3C, $A0, $01, $F1, $00, $00, $C0
000690 3c00
000691 01a0
000692 00f1
000693 c000
          	.db	$03, $78, $00, $03, $E2, $01, $3C, $80
000694 7803
000695 0300
000696 01e2
000697 803c
          	.db	$01, $F0, $80, $10, $30, $03, $78, $00
000698 f001
000699 1080
00069a 0330
00069b 0078
          	.db	$00, $E0, $01, $0C, $88, $07, $30, $00
00069c e000
00069d 0c01
00069e 0788
00069f 0030
          	.db	$1E, $C0, $00, $01, $D0, $00, $00, $30
0006a0 c01e
0006a1 0100
0006a2 00d0
0006a3 3000
          	.db	$00, $00, $01, $02, $03, $00, $40, $00
0006a4 0000
0006a5 0201
0006a6 0003
0006a7 0040
          	.db	$82, $01, $30, $02, $80, $10, $C0, $03
0006a8 0182
0006a9 0230
0006aa 1080
0006ab 03c0
          	.db	$60, $04, $10, $00, $C0, $40, $00, $10
0006ac 0460
0006ad 0010
0006ae 40c0
0006af 1000
          	.db	$00, $80, $86, $00, $00, $30, $0A, $45
0006b0 8000
0006b1 0086
0006b2 3000
0006b3 450a
          	.db	$10, $08, $01, $00, $03, $08, $02, $8A
0006b4 0810
0006b5 0001
0006b6 0803
0006b7 8a02
          	.db	$80, $01, $30, $00, $04, $08, $04, $03
0006b8 0180
0006b9 0030
0006ba 0804
0006bb 0304
          	.db	$42, $52, $05, $18, $03, $C0, $88, $02
0006bc 5242
0006bd 1805
0006be c003
0006bf 0288
          	.db	$60, $00, $00, $80, $41, $80, $00, $40
0006c0 0060
0006c1 8000
0006c2 8041
0006c3 4000
          	.db	$C8, $02, $80, $80, $22, $84, $B9, $00
0006c4 02c8
0006c5 8080
0006c6 8422
0006c7 00b9
          	.db	$04, $06, $A0, $20, $C2, $02, $43, $50
0006c8 0604
0006c9 20a0
0006ca 02c2
0006cb 5043
          	.db	$10, $08, $00, $41, $90, $09, $00, $12
0006cc 0810
0006cd 4100
0006ce 0990
0006cf 1200
          	.db	$02, $01, $02, $42, $52, $00, $08, $03
0006d0 0102
0006d1 4202
0006d2 0052
0006d3 0308
          	.db	$18, $00, $00, $04, $00, $C4, $22, $58
0006d4 0018
0006d5 0400
0006d6 c400
0006d7 5822
          	.db	$00, $00, $60, $21, $01, $80, $11, $05
0006d8 0000
0006d9 2160
0006da 8001
0006db 0511
          	.db	$00, $26, $01, $00, $00, $61, $10, $81
0006dc 2600
0006dd 0001
0006de 6100
0006df 8110
          	.db	$89, $00, $00, $10, $00, $02, $C0, $00
0006e0 0089
0006e1 1000
0006e2 0200
0006e3 00c0
          	.db	$08, $00, $01, $01, $00, $04, $80, $81
0006e4 0008
0006e5 0101
0006e6 0400
0006e7 8180
          	.db	$02, $01, $04, $12, $52, $02, $30, $03
0006e8 0102
0006e9 1204
0006ea 0252
0006eb 0330
          	.db	$20, $10, $02, $18, $00, $C0, $00, $18
0006ec 1020
0006ed 1802
0006ee c000
0006ef 1800
          	.db	$10, $00, $60, $00, $00, $80, $01, $00
0006f0 0010
0006f1 0060
0006f2 8000
0006f3 0001
          	.db	$00, $06, $03, $01, $80, $A1, $C0, $01
0006f4 0600
0006f5 0103
0006f6 a180
0006f7 01c0
          	.db	$20, $10, $04, $20, $02, $02, $18, $00
0006f8 1020
0006f9 2004
0006fa 0202
0006fb 0018
          	.db	$08, $40, $00, $08, $00, $07, $E0, $04
0006fc 4008
0006fd 0800
0006fe 0700
0006ff 04e0
          	.db	$12, $52, $02, $30, $03, $20, $10, $02
000700 5212
000701 3002
000702 2003
000703 0210
          	.db	$18, $07, $20, $00, $06, $00, $00, $10
000704 0718
000705 0020
000706 0006
000707 1000
          	.db	$00, $00, $44, $00, $00, $80, $01, $00
000708 0000
000709 0044
00070a 8000
00070b 0001
          	.db	$00, $1C, $00, $02, $80, $8D, $A8, $01
00070c 1c00
00070d 0200
00070e 8d80
00070f 01a8
          	.db	$00, $00, $10, $14, $00, $00, $20, $08
000710 0000
000711 1410
000712 0000
000713 0820
          	.db	$09, $00, $20, $28, $00, $04, $80, $06
000714 0009
000715 2820
000716 0400
000717 0680
          	.db	$D0, $03, $50, $80, $52, $02, $28, $02
000718 03d0
000719 8050
00071a 0252
00071b 0228
          	.db	$20, $10, $12, $00, $94, $06, $10, $03
00071c 1020
00071d 0012
00071e 0694
00071f 0310
          	.db	$08, $00, $20, $20, $05, $1A, $00, $50
000720 0008
000721 2020
000722 1a05
000723 5000
          	.db	$00, $F0, $80, $89, $90, $00, $12, $01
000724 f000
000725 8980
000726 0090
000727 0112
          	.db	$18, $00, $01, $11, $60, $80, $24, $02
000728 0018
000729 1101
00072a 8060
00072b 0224
          	.db	$08, $30, $00, $16, $C4, $82, $02, $50
00072c 3008
00072d 1600
00072e 82c4
00072f 5002
          	.db	$80, $52, $02, $28, $02, $20, $10, $12
000730 5280
000731 2802
000732 2002
000733 1210
          	.db	$00, $14, $16, $04, $42, $40, $08, $00
000734 1400
000735 0416
000736 4042
000737 0008
          	.db	$00, $81, $00, $10, $30, $00, $0A, $C0
000738 8100
000739 1000
00073a 0030
00073b c00a
          	.db	$00, $00, $58, $10, $61, $80, $F3, $E0
00073c 0000
00073d 1058
00073e 8061
00073f e0f3
          	.db	$01, $0C, $A0, $01, $30, $00, $06, $D0
000740 0c01
000741 01a0
000742 0030
000743 d006
          	.db	$80, $78, $00, $03, $60, $00, $3D, $A0
000744 7880
000745 0300
000746 0060
000747 a03d
          	.db	$07, $F0, $04, $D2, $D2, $02, $03, $10
000748 f007
000749 d204
00074a 02d2
00074b 1003
          	.db	$38, $12, $02, $80, $07, $30, $00, $06
00074c 1238
00074d 8002
00074e 3007
00074f 0600
          	.db	$00, $00, $18, $00, $03, $60, $00, $0C
000750 0000
000751 0018
000752 6003
000753 0c00
          	.db	$80, $01, $00, $00, $1E, $C0, $00, $00
000754 0180
000755 0000
000756 c01e
000757 0000
          	.db	$DE, $04, $00, $01, $00, $00, $C1, $80
000758 04de
000759 0100
00075a 0000
00075b 80c1
          	.db	$00, $08, $80, $60, $00, $00, $82, $01
00075c 0800
00075d 6080
00075e 0000
00075f 0182
          	.db	$31, $02, $40, $03, $D2, $D2, $02, $03
000760 0231
000761 0340
000762 d2d2
000763 0302
          	.db	$10, $38, $12, $02, $00, $00, $C0, $00
000764 3810
000765 0212
000766 0000
000767 00c0
          	.db	$18, $00, $00, $60, $00, $0C, $80, $01
000768 0018
000769 6000
00076a 0c00
00076b 0180
          	.db	$31, $00, $06, $02, $00, $00, $10, $00
00076c 0031
00076d 0206
00076e 0000
00076f 0010
          	.db	$02, $AA, $20, $08, $28, $10, $04, $D0
000770 aa02
000771 0820
000772 1028
000773 d004
          	.db	$02, $84, $80, $22, $60, $00, $48, $A0
000774 8402
000775 2280
000776 0060
000777 a048
          	.db	$11, $30, $00, $40, $08, $02, $03, $D2
000778 3011
000779 4000
00077a 0208
00077b d203
          	.db	$42, $02, $04, $38, $12, $00, $80, $40
00077c 0242
00077d 3804
00077e 0012
00077f 4080
          	.db	$C8, $88, $18, $11, $00, $68, $12, $80
000780 88c8
000781 1118
000782 6800
000783 8012
          	.db	$B0, $05, $30, $05, $16, $00, $00, $80
000784 05b0
000785 0530
000786 0016
000787 8000
          	.db	$00, $22, $00, $F8, $00, $04, $06, $11
000788 2200
000789 f800
00078a 0400
00078b 1106
          	.db	$06, $C2, $02, $43, $44, $10, $64, $84
00078c c206
00078d 4302
00078e 1044
00078f 8464
          	.db	$80, $02, $08, $34, $81, $20, $04, $02
000790 0280
000791 3408
000792 2081
000793 0204
          	.db	$01, $02, $D2, $42, $02, $04, $38, $12
000794 0201
000795 42d2
000796 0402
000797 1238
          	.db	$00, $80, $00, $00, $24, $00, $40, $90
000798 8000
000799 0000
00079a 0024
00079b 9040
          	.db	$08, $01, $00, $80, $09, $36, $01, $20
00079c 0108
00079d 8000
00079e 3609
00079f 2001
          	.db	$01, $00, $02, $02, $88, $00, $00, $10
0007a0 0001
0007a1 0202
0007a2 0088
0007a3 1000
          	.db	$00, $06, $C0, $00, $08, $00, $01, $60
0007a4 0600
0007a5 00c0
0007a6 0008
0007a7 6001
          	.db	$02, $80, $30, $08, $05, $90, $C2, $40
0007a8 8002
0007a9 0830
0007aa 9005
0007ab 40c2
          	.db	$02, $06, $02, $07, $40, $00, $80, $01
0007ac 0602
0007ad 0702
0007ae 0040
0007af 0180
          	.db	$30, $20, $06, $83, $C0, $01, $20, $80
0007b0 2030
0007b1 8306
0007b2 01c0
0007b3 8020
          	.db	$01, $20, $02, $02, $10, $00, $0E, $E0
0007b4 2001
0007b5 0202
0007b6 0010
0007b7 e00e
          	.db	$01, $30, $20, $00, $F0, $03, $90, $C2
0007b8 3001
0007b9 0020
0007ba 03f0
0007bb c290
          	.db	$40, $02, $06, $02, $80, $01, $E0, $03
0007bc 0240
0007bd 0206
0007be 0180
0007bf 03e0
          	.db	$20, $00, $00, $40, $00, $30, $90, $07
0007c0 0020
0007c1 4000
0007c2 3000
0007c3 0790
          	.db	$00, $00, $18, $00, $00, $80, $98, $A4
0007c4 0000
0007c5 0018
0007c6 8000
0007c7 a498
          	.db	$01, $00, $05, $00, $10, $00, $00, $08
0007c8 0001
0007c9 0005
0007ca 0010
0007cb 0800
          	.db	$08, $0A, $00, $0D, $80, $01, $30, $01
0007cc 0a08
0007cd 0d00
0007ce 0180
0007cf 0130
          	.db	$00, $C8, $03, $80, $00, $D2, $02, $03
0007d0 c800
0007d1 8003
0007d2 d200
0007d3 0302
          	.db	$10, $02, $12, $02, $80, $00, $D0, $02
0007d4 0210
0007d5 0212
0007d6 0080
0007d7 02d0
          	.db	$08, $42, $14, $00, $20, $00, $B0, $00
0007d8 4208
0007d9 0014
0007da 0020
0007db 00b0
          	.db	$06, $00, $00, $18, $04, $00, $10, $92
0007dc 0006
0007dd 1800
0007de 0004
0007df 9210
          	.db	$84, $05, $11, $06, $40, $00, $42, $80
0007e0 0584
0007e1 0611
0007e2 0040
0007e3 8042
          	.db	$10, $A1, $00, $0C, $4C, $84, $05, $31
0007e4 a110
0007e5 0c00
0007e6 844c
0007e7 3105
          	.db	$00, $10, $C8, $82, $02, $80, $00, $D2
0007e8 1000
0007e9 82c8
0007ea 8002
0007eb d200
          	.db	$02, $03, $10, $02, $12, $02, $00, $46
0007ec 0302
0007ed 0210
0007ee 0212
0007ef 4600
          	.db	$C0, $82, $00, $00, $22, $02, $0C, $00
0007f0 82c0
0007f1 0000
0007f2 0222
0007f3 000c
          	.db	$00, $30, $30, $02, $26, $02, $00, $00
0007f4 3000
0007f5 0230
0007f6 0226
0007f7 0000
          	.db	$03, $00, $90, $A4, $E0, $01, $0C, $80
0007f8 0003
0007f9 a490
0007fa 01e0
0007fb 800c
          	.db	$01, $32, $00, $06, $C0, $00, $18, $00
0007fc 3201
0007fd 0600
0007fe 00c0
0007ff 0018
          	.db	$0F, $E0, $01, $3C, $88, $01, $F0, $05
000800 e00f
000801 3c01
000802 0188
000803 05f0
          	.db	$42, $06, $02, $02, $80, $07, $F2, $00
000804 0642
000805 0202
000806 0780
000807 00f2
          	.db	$00, $C0, $00, $58, $00, $00, $60, $00
000808 c000
000809 5800
00080a 0000
00080b 0060
          	.db	$3C, $88, $07, $00, $00, $1E, $02, $95
00080c 883c
00080d 0007
00080e 1e00
00080f 9502
          	.db	$08, $80, $00, $00, $06, $C2, $40, $00
000810 8008
000811 0000
000812 c206
000813 0040
          	.db	$00, $80, $60, $40, $00, $08, $00, $30
000814 8000
000815 4060
000816 0800
000817 3000
          	.db	$00, $04, $00, $40, $04, $42, $00, $20
000818 0400
000819 4000
00081a 4204
00081b 2000
          	.db	$04, $02, $02, $10, $06, $00, $80, $05
00081c 0204
00081d 1002
00081e 0006
00081f 0580
          	.db	$80, $01, $11, $06, $20, $83, $20, $04
000820 0180
000821 0611
000822 8320
000823 0420
          	.db	$20, $42, $06, $D0, $00, $00, $09, $12
000824 4220
000825 d006
000826 0000
000827 1209
          	.db	$68, $01, $40, $20, $48, $20, $08, $40
000828 0168
000829 2040
00082a 2048
00082b 4008
          	.db	$08, $02, $03, $02, $D0, $00, $40, $03
00082c 0208
00082d 0203
00082e 00d0
00082f 0340
          	.db	$20, $00, $02, $20, $06, $00, $04, $00
000830 0020
000831 2002
000832 0006
000833 0004
          	.db	$00, $10, $41, $10, $00, $A0, $05, $30
000834 1000
000835 1041
000836 a000
000837 3005
          	.db	$42, $40, $08, $00, $98, $04, $00, $00
000838 4042
000839 0008
00083a 0498
00083b 0000
          	.db	$FC, $20, $08, $04, $20, $00, $01, $88
00083c 20fc
00083d 0408
00083e 0020
00083f 8801
          	.db	$00, $11, $20, $60, $84, $8C, $02, $08
000840 1100
000841 6020
000842 8c84
000843 0802
          	.db	$00, $92, $20, $C0, $00, $01, $02, $02
000844 9200
000845 c020
000846 0100
000847 0202
          	.db	$D0, $05, $20, $00, $02, $00, $06, $04
000848 05d0
000849 0020
00084a 0002
00084b 0406
          	.db	$22, $02, $42, $00, $60, $44, $01, $A0
00084c 0222
00084d 0042
00084e 4460
00084f a001
          	.db	$01, $84, $10, $20, $01, $00, $00, $04
000850 8401
000851 2010
000852 0001
000853 0400
          	.db	$00, $00, $FB, $80, $80, $10, $06, $62
000854 0000
000855 80fb
000856 1080
000857 6206
          	.db	$00, $0C, $00, $80, $00, $00, $02, $C2
000858 0c00
000859 8000
00085a 0000
00085b c202
          	.db	$03, $D0, $42, $50, $00, $10, $02, $38
00085c d003
00085d 5042
00085e 1000
00085f 3802
          	.db	$22, $00, $00, $08, $06, $04, $60, $00
000860 0022
000861 0800
000862 0406
000863 0060
          	.db	$00, $80, $01, $08, $84, $00, $01, $20
000864 8000
000865 0801
000866 0084
000867 2001
          	.db	$10, $07, $30, $00, $06, $80, $03, $10
000868 0710
000869 0030
00086a 8006
00086b 1003
          	.db	$00, $03, $C0, $01, $08, $00, $04, $20
00086c 0300
00086d 01c0
00086e 0008
00086f 2004
          	.db	$03, $D0, $42, $50, $00, $20, $02, $38
000870 d003
000871 5042
000872 2000
000873 3802
          	.db	$22, $00, $00, $10, $01, $E0, $00, $00
000874 0022
000875 1000
000876 e001
000877 0000
          	.db	$C0, $00, $10, $00, $00, $80, $01, $00
000878 00c0
000879 0010
00087a 8000
00087b 0001
          	.db	$80, $07, $00, $00, $1E, $00, $00, $80
00087c 0780
00087d 0000
00087e 001e
00087f 8000
          	.db	$B9, $00, $84, $00, $80, $06, $10, $00
000880 00b9
000881 0084
000882 0680
000883 0010
          	.db	$02, $40, $03, $08, $00, $00, $A0, $01
000884 4002
000885 0803
000886 0000
000887 01a0
          	.db	$04, $00, $10, $12, $03, $D0, $02, $10
000888 0004
000889 1210
00088a d003
00088b 1002
          	.db	$00, $30, $02, $38, $3A, $12, $02, $98
00088c 3000
00088d 3802
00088e 123a
00088f 9802
          	.db	$00, $D0, $00, $40, $20, $00, $08, $00
000890 d000
000891 4000
000892 0020
000893 0008
          	.db	$40, $90, $01, $00, $08, $06, $00, $00
000894 9040
000895 0001
000896 0608
000897 0000
          	.db	$18, $00, $00, $80, $E7, $80, $10, $90
000898 0018
000899 8000
00089a 80e7
00089b 9010
          	.db	$00, $16, $C4, $00, $18, $00, $13, $01
00089c 1600
00089d 00c4
00089e 0018
00089f 0113
          	.db	$21, $80, $81, $89, $B0, $20, $42, $00
0008a0 8021
0008a1 8981
0008a2 20b0
0008a3 0042
          	.db	$08, $01, $00, $00, $D0, $02, $10, $04
0008a4 0108
0008a5 0000
0008a6 02d0
0008a7 0410
          	.db	$38, $3A, $12, $02, $00, $40, $C0, $82
0008a8 3a38
0008a9 0212
0008aa 4000
0008ab 82c0
          	.db	$00, $10, $23, $04, $81, $40, $10, $20
0008ac 1000
0008ad 0423
0008ae 4081
0008af 2010
          	.db	$00, $41, $06, $08, $00, $58, $10, $00
0008b0 4100
0008b1 0806
0008b2 5800
0008b3 0010
          	.db	$80, $B2, $60, $40, $0C, $90, $07, $F0
0008b4 b280
0008b5 4060
0008b6 900c
0008b7 f007
          	.db	$80, $1E, $C8, $03, $18, $00, $03, $E0
0008b8 1e80
0008b9 03c8
0008ba 0018
0008bb e003
          	.db	$01, $3C, $80, $01, $31, $03, $10, $80
0008bc 3c01
0008bd 0180
0008be 0331
0008bf 8010
          	.db	$40, $02, $30, $03, $10, $08, $00, $98
0008c0 0240
0008c1 0330
0008c2 0810
0008c3 9800
          	.db	$01, $F2, $00, $06, $C0, $03, $18, $00
0008c4 f201
0008c5 0600
0008c6 03c0
0008c7 0018
          	.db	$03, $60, $00, $0C, $80, $07, $00, $00
0008c8 6003
0008c9 0c00
0008ca 0780
0008cb 0000
          	.db	$1E, $02, $9E, $02, $20, $00, $C4, $00
0008cc 021e
0008cd 029e
0008ce 0020
0008cf 00c4
          	.db	$18, $00, $00, $62, $20, $0C, $04, $00
0008d0 0018
0008d1 6200
0008d2 0c20
0008d3 0004
          	.db	$30, $00, $00, $C1, $40, $02, $10, $80
0008d4 0030
0008d5 c100
0008d6 0240
0008d7 8010
          	.db	$40, $02, $04, $10, $08, $00, $00, $06
0008d8 0240
0008d9 1004
0008da 0008
0008db 0600
          	.db	$00, $80, $00, $00, $03, $60, $00, $00
0008dc 8000
0008dd 0000
0008de 6003
0008df 0000
          	.db	$84, $41, $05, $10, $00, $00, $BB, $40
0008e0 4184
0008e1 1005
0008e2 0000
0008e3 40bb
          	.db	$45, $28, $00, $20, $C0, $00, $18, $40
0008e4 2845
0008e5 2000
0008e6 00c0
0008e7 4018
          	.db	$10, $68, $00, $2C, $20, $48, $30, $00
0008e8 6810
0008e9 2c00
0008ea 4820
0008eb 0030
          	.db	$15, $C0, $04, $40, $02, $00, $20, $02
0008ec c015
0008ed 4004
0008ee 0002
0008ef 0220
          	.db	$20, $02, $90, $16, $01, $04, $08, $51
0008f0 0220
0008f1 1690
0008f2 0401
0008f3 5108
          	.db	$03, $68, $12, $2C, $80, $11, $10, $22
0008f4 6803
0008f5 2c12
0008f6 1180
0008f7 2210
          	.db	$A0, $00, $00, $80, $02, $82, $20, $08
0008f8 00a0
0008f9 8000
0008fa 8202
0008fb 0820
          	.db	$06, $11, $06, $01, $88, $00, $00, $20
0008fc 1106
0008fd 0106
0008fe 0088
0008ff 2000
          	.db	$08, $02, $80, $22, $00, $05, $80, $20
000900 0208
000901 2280
000902 0500
000903 2080
          	.db	$C2, $00, $01, $02, $40, $02, $00, $08
000904 00c2
000905 0201
000906 0240
000907 0800
          	.db	$02, $20, $02, $04, $06, $14, $00, $98
000908 2002
000909 0402
00090a 1406
00090b 9800
          	.db	$60, $03, $60, $24, $00, $20, $00, $04
00090c 0360
00090d 2460
00090e 2000
00090f 0400
          	.db	$80, $40, $02, $00, $00, $08, $00, $80
000910 4080
000911 0002
000912 0800
000913 8000
          	.db	$A9, $80, $00, $10, $00, $06, $04, $22
000914 80a9
000915 1000
000916 0600
000917 2204
          	.db	$20, $00, $80, $02, $02, $C0, $03, $D0
000918 0020
000919 0280
00091a c002
00091b d003
          	.db	$52, $D2, $00, $10, $02, $38, $1A, $02
00091c d252
00091d 1000
00091e 3802
00091f 021a
          	.db	$00, $08, $06, $00, $00, $18, $00, $00
000920 0800
000921 0006
000922 1800
000923 0000
          	.db	$60, $0C, $CC, $00, $01, $20, $00, $01
000924 0c60
000925 00cc
000926 2001
000927 0100
          	.db	$30, $00, $00, $80, $03, $40, $00, $0E
000928 0030
000929 8000
00092a 4003
00092b 0e00
          	.db	$00, $01, $08, $00, $04, $20, $03, $D0
00092c 0100
00092d 0008
00092e 2004
00092f d003
          	.db	$52, $D2, $00, $10, $02, $38, $1A, $02
000930 d252
000931 1000
000932 3802
000933 021a
          	.db	$00, $08, $01, $00, $00, $04, $00, $03
000934 0800
000935 0001
000936 0400
000937 0300
          	.db	$10, $00, $00, $40, $05, $1E, $02, $DD
000938 0010
000939 4000
00093a 1e05
00093b dd02
          	.db	$04, $04, $01, $85, $00, $10, $00, $00
00093c 0404
00093d 8501
00093e 1000
00093f 0000
          	.db	$40, $03, $00, $21, $0D, $00, $84, $04
000940 0340
000941 2100
000942 000d
000943 0484
          	.db	$00, $A0, $10, $00, $10, $03, $C2, $02
000944 a000
000945 0010
000946 0310
000947 02c2
          	.db	$08, $01, $02, $10, $02, $02, $84, $00
000948 0108
000949 1002
00094a 0202
00094b 0084
          	.db	$00, $88, $02, $00, $03, $0A, $00, $00
00094c 8800
00094d 0002
00094e 0a03
00094f 0000
          	.db	$20, $02, $40, $08, $00, $18, $00, $00
000950 0220
000951 0840
000952 1800
000953 0000
          	.db	$10, $EA, $84, $44, $10, $00, $C0, $C0
000954 ea10
000955 4484
000956 0010
000957 c0c0
          	.db	$04, $00, $00, $0B, $22, $00, $2C, $88
000958 0004
000959 0b00
00095a 0022
00095b 882c
          	.db	$08, $30, $02, $42, $01, $04, $02, $03
00095c 3008
00095d 4202
00095e 0401
00095f 0302
          	.db	$C2, $02, $40, $04, $02, $10, $02, $02
000960 02c2
000961 0440
000962 1002
000963 0202
          	.db	$20, $C0, $C0, $00, $41, $08, $8B, $00
000964 c020
000965 00c0
000966 0841
000967 008b
          	.db	$81, $00, $80, $89, $00, $0A, $80, $00
000968 0081
000969 8980
00096a 0a00
00096b 0080
          	.db	$00, $58, $10, $00, $90, $94, $60, $00
00096c 5800
00096d 0010
00096e 9490
00096f 0060
          	.db	$0C, $90, $01, $F0, $40, $00, $C0, $03
000970 900c
000971 f001
000972 0040
000973 03c0
          	.db	$18, $10, $0F, $60, $40, $3C, $90, $01
000974 1018
000975 600f
000976 3c40
000977 0190
          	.db	$30, $80, $02, $80, $82, $52, $02, $00
000978 8030
000979 8002
00097a 5282
00097b 0002
          	.db	$02, $00, $00, $20, $10, $12, $02, $80
00097c 0002
00097d 2000
00097e 1210
00097f 8002
          	.db	$01, $30, $00, $06, $C0, $03, $18, $00
000980 3001
000981 0600
000982 03c0
000983 0018
          	.db	$00, $E0, $01, $0C, $80, $01, $00, $00
000984 e000
000985 0c01
000986 0180
000987 0000
          	.db	$1E, $00, $00, $80, $DC, $08, $40, $00
000988 001e
000989 8000
00098a 08dc
00098b 0040
          	.db	$10, $06, $C2, $03, $01, $00, $00, $04
00098c 0610
00098d 03c2
00098e 0001
00098f 0400
          	.db	$40, $30, $00, $00, $C1, $80, $0A, $00
000990 3040
000991 0000
000992 80c1
000993 000a
          	.db	$00, $80, $82, $52, $02, $00, $10, $00
000994 8000
000995 5282
000996 0002
000997 0010
          	.db	$00, $20, $10, $12, $02, $00, $06, $02
000998 2000
000999 1210
00099a 0002
00099b 0206
          	.db	$80, $18, $00, $83, $60, $00, $00, $80
00099c 1880
00099d 8300
00099e 0060
00099f 8000
          	.db	$01, $30, $10, $04, $02, $10, $00, $20
0009a0 3001
0009a1 0410
0009a2 1002
0009a3 2000
          	.db	$FE, $00, $09, $20, $01, $16, $C0, $00
0009a4 00fe
0009a5 2009
0009a6 1601
0009a7 00c0
          	.db	$00, $40, $08, $50, $11, $20, $40, $09
0009a8 4000
0009a9 5008
0009aa 2011
0009ab 0940
          	.db	$30, $00, $24, $C0, $08, $04, $00, $00
0009ac 0030
0009ad c024
0009ae 0408
0009af 0000
          	.db	$C0, $82, $40, $00, $00, $08, $02, $22
0009b0 82c0
0009b1 0040
0009b2 0800
0009b3 2202
          	.db	$10, $00, $80, $16, $00, $04, $18, $11
0009b4 0010
0009b5 1680
0009b6 0400
0009b7 1118
          	.db	$03, $68, $12, $00, $80, $01, $B0, $00
0009b8 6803
0009b9 0012
0009ba 0180
0009bb 00b0
          	.db	$10, $08, $00, $80, $02, $EE, $80, $05
0009bc 0810
0009bd 8000
0009be ee02
0009bf 0580
          	.db	$36, $00, $06, $11, $04, $02, $10, $08
0009c0 0036
0009c1 1106
0009c2 0204
0009c3 0810
          	.db	$0C, $22, $8C, $22, $08, $02, $12, $06
0009c4 220c
0009c5 228c
0009c6 0208
0009c7 0612
          	.db	$C0, $02, $09, $00, $00, $C0, $82, $40
0009c8 02c0
0009c9 0009
0009ca c000
0009cb 4082
          	.db	$05, $22, $10, $00, $80, $20, $10, $00
0009cc 2205
0009cd 0010
0009ce 2080
0009cf 0010
          	.db	$98, $40, $13, $01, $02, $0D, $80, $89
0009d0 4098
0009d1 0113
0009d2 0d02
0009d3 8980
          	.db	$04, $41, $26, $01, $00, $00, $05, $00
0009d4 4104
0009d5 0126
0009d6 0000
0009d7 0005
          	.db	$80, $B5, $80, $01, $20, $08, $06, $40
0009d8 b580
0009d9 0180
0009da 0820
0009db 4006
          	.db	$20, $08, $00, $00, $20, $00, $0C, $80
0009dc 0820
0009dd 0000
0009de 0020
0009df 800c
          	.db	$02, $06, $C1, $00, $02, $02, $80, $D0
0009e0 0602
0009e1 00c1
0009e2 0202
0009e3 d080
          	.db	$02, $00, $04, $02, $20, $10, $02, $00
0009e4 0002
0009e5 0204
0009e6 1020
0009e7 0002
          	.db	$02, $02, $00, $18, $04, $03, $00, $20
0009e8 0202
0009e9 1800
0009ea 0304
0009eb 2000
          	.db	$04, $06, $04, $80, $88, $40, $00, $30
0009ec 0604
0009ed 8004
0009ee 4088
0009ef 3000
          	.db	$00, $01, $80, $00, $10, $C8, $03, $40
0009f0 0100
0009f1 0080
0009f2 c810
0009f3 4003
          	.db	$00, $02, $00, $01, $0C, $00, $01, $30
0009f4 0200
0009f5 0100
0009f6 000c
0009f7 3001
          	.db	$00, $08, $02, $80, $D0, $02, $00, $01
0009f8 0800
0009f9 8002
0009fa 02d0
0009fb 0100
          	.db	$02, $20, $10, $02, $00, $04, $02, $80
0009fc 2002
0009fd 0210
0009fe 0400
0009ff 8002
          	.db	$06, $00, $03, $79, $00, $00, $E2, $41
000a00 0006
000a01 7903
000a02 0000
000a03 41e2
          	.db	$00, $90, $01, $00, $00, $1E, $02, $D7
000a04 9000
000a05 0001
000a06 1e00
000a07 d702
          	.db	$2C, $00, $30, $C1, $00, $00, $42, $00
000a08 002c
000a09 c130
000a0a 0000
000a0b 0042
          	.db	$00, $03, $00, $0A, $01, $00, $28, $00
000a0c 0300
000a0d 0a00
000a0e 0001
000a0f 0028
          	.db	$80, $02, $0C, $00, $00, $10, $12, $40
000a10 0280
000a11 000c
000a12 1000
000a13 4012
          	.db	$00, $00, $06, $02, $30, $02, $02, $02
000a14 0000
000a15 0206
000a16 0230
000a17 0202
          	.db	$04, $00, $00, $03, $60, $00, $00, $20
000a18 0004
000a19 0300
000a1a 0060
000a1b 2000
          	.db	$00, $80, $03, $18, $00, $00, $A0, $AD
000a1c 8000
000a1d 1803
000a1e 0000
000a1f ada0
          	.db	$04, $20, $30, $00, $40, $40, $00, $08
000a20 2004
000a21 0030
000a22 4040
000a23 0800
          	.db	$02, $13, $21, $02, $80, $90, $50, $30
000a24 1302
000a25 0221
000a26 9080
000a27 3050
          	.db	$21, $C0, $00, $08, $01, $00, $00, $10
000a28 c021
000a29 0800
000a2a 0001
000a2b 1000
          	.db	$12, $40, $05, $30, $02, $02, $00, $42
000a2c 4012
000a2d 3005
000a2e 0202
000a2f 4200
          	.db	$00, $00, $41, $08, $21, $60, $80, $20
000a30 0000
000a31 0841
000a32 6021
000a33 2080
          	.db	$08, $08, $00, $02, $20, $00, $00, $58
000a34 0808
000a35 0200
000a36 0020
000a37 5800
          	.db	$10, $00, $00, $A6, $60, $00, $3C, $A0
000a38 0010
000a39 a600
000a3a 0060
000a3b a03c
          	.db	$01, $32, $20, $06, $C0, $03, $18, $10
000a3c 3201
000a3d 0620
000a3e 03c0
000a3f 1018
          	.db	$03, $60, $00, $3C, $80, $01, $30, $00
000a40 6003
000a41 3c00
000a42 0180
000a43 0030
          	.db	$08, $00, $00, $10, $80, $D2, $05, $22
000a44 0008
000a45 1000
000a46 d280
000a47 2205
          	.db	$00, $02, $80, $01, $31, $00, $06, $C0
000a48 0200
000a49 0180
000a4a 0031
000a4b c006
          	.db	$03, $79, $00, $03, $60, $00, $0D, $88
000a4c 7903
000a4d 0300
000a4e 0060
000a4f 880d
          	.db	$01, $04, $00, $1E, $00, $00, $80, $EC
000a50 0401
000a51 1e00
000a52 0000
000a53 ec80
          	.db	$8C, $01, $30, $10, $06, $02, $03, $02
000a54 018c
000a55 1030
000a56 0206
000a57 0203
          	.db	$10, $0C, $04, $00, $30, $00, $06, $C2
000a58 0c10
000a59 0004
000a5a 0030
000a5b c206
          	.db	$40, $02, $00, $00, $10, $80, $D2, $00
000a5c 0240
000a5d 0000
000a5e 8010
000a5f 00d2
          	.db	$00, $04, $02, $22, $00, $02, $00, $00
000a60 0400
000a61 2202
000a62 0200
000a63 0000
          	.db	$C1, $00, $18, $00, $03, $02, $88, $01
000a64 00c1
000a65 0018
000a66 0203
000a67 0188
          	.db	$20, $00, $06, $02, $10, $00, $90, $8F
000a68 0020
000a69 0206
000a6a 0010
000a6b 8f90
          	.db	$A0, $01, $B2, $00, $06, $A0, $20, $54
000a6c 01a0
000a6d 00b2
000a6e a006
000a6f 5420
          	.db	$48, $10, $40, $00, $0C, $00, $41, $30
000a70 1048
000a71 0040
000a72 000c
000a73 3041
          	.db	$00, $16, $C0, $00, $04, $00, $00, $90
000a74 1600
000a75 00c0
000a76 0004
000a77 9000
          	.db	$D2, $50, $00, $00, $01, $03, $02, $00
000a78 50d2
000a79 0000
000a7a 0301
000a7b 0002
          	.db	$00, $45, $00, $88, $18, $11, $43, $08
000a7c 4500
000a7d 8800
000a7e 1118
000a7f 0843
          	.db	$0A, $80, $80, $89, $00, $22, $A6, $00
000a80 800a
000a81 8980
000a82 2200
000a83 00a6
          	.db	$00, $80, $02, $83, $20, $00, $04, $20
000a84 8000
000a85 8302
000a86 0020
000a87 2004
          	.db	$00, $11, $24, $82, $08, $23, $00, $84
000a88 1100
000a89 8224
000a8a 2308
000a8b 8400
          	.db	$81, $84, $09, $00, $12, $06, $10, $04
000a8c 8481
000a8d 0009
000a8e 0612
000a8f 0410
          	.db	$04, $00, $00, $90, $D2, $50, $00, $00
000a90 0004
000a91 9000
000a92 50d2
000a93 0000
          	.db	$08, $03, $02, $00, $80, $20, $12, $00
000a94 0308
000a95 0002
000a96 2080
000a97 0012
          	.db	$42, $40, $03, $08, $00, $01, $80, $89
000a98 4042
000a99 0803
000a9a 0100
000a9b 8980
          	.db	$84, $20, $26, $01, $00, $42, $48, $00
000a9c 2084
000a9d 0126
000a9e 4200
000a9f 0048
          	.db	$C0, $BB, $00, $00, $10, $00, $00, $40
000aa0 bbc0
000aa1 0000
000aa2 0010
000aa3 4000
          	.db	$00, $08, $00, $03, $02, $00, $00, $80
000aa4 0800
000aa5 0300
000aa6 0002
000aa7 8000
          	.db	$81, $00, $00, $06, $41, $40, $02, $00
000aa8 0081
000aa9 0600
000aaa 4041
000aab 0002
          	.db	$00, $D0, $D2, $02, $02, $03, $38, $12
000aac d000
000aad 02d2
000aae 0302
000aaf 1238
          	.db	$12, $00, $00, $02, $02, $08, $03, $02
000ab0 0012
000ab1 0200
000ab2 0802
000ab3 0203
          	.db	$00, $0C, $00, $00, $20, $00, $06, $04
000ab4 0c00
000ab5 0000
000ab6 0020
000ab7 0406
          	.db	$80, $F6, $60, $00, $20, $10, $07, $80
000ab8 f680
000ab9 0060
000aba 1020
000abb 8007
          	.db	$00, $10, $80, $00, $70, $00, $00, $48
000abc 1000
000abd 0080
000abe 0070
000abf 4800
          	.db	$00, $0C, $00, $01, $80, $00, $10, $00
000ac0 0c00
000ac1 0100
000ac2 0080
000ac3 0010
          	.db	$00, $D0, $D2, $02, $02, $00, $05, $00
000ac4 d000
000ac5 02d2
000ac6 0002
000ac7 0005
          	.db	$00, $38, $12, $12, $00, $00, $04, $C0
000ac8 3800
000ac9 1212
000aca 0000
000acb c004
          	.db	$00, $08, $04, $03, $60, $10, $00, $E8
000acc 0800
000acd 0304
000ace 1060
000acf e800
          	.db	$01, $00, $A0, $01, $02, $C0, $00, $80
000ad0 0001
000ad1 01a0
000ad2 c002
000ad3 8000
          	.db	$CE, $02, $80, $06, $00, $14, $00, $45
000ad4 02ce
000ad5 0680
000ad6 1400
000ad7 4500
          	.db	$00, $68, $00, $80, $20, $00, $00, $80
000ad8 6800
000ad9 8000
000ada 0020
000adb 8000
          	.db	$00, $00, $42, $03, $40, $42, $04, $10
000adc 0000
000add 0342
000ade 4240
000adf 1004
          	.db	$10, $08, $00, $00, $A0, $C0, $20, $90
000ae0 0810
000ae1 0000
000ae2 c0a0
000ae3 9020
          	.db	$00, $23, $64, $02, $40, $20, $90, $00
000ae4 2300
000ae5 0264
000ae6 2040
000ae7 0090
          	.db	$01, $02, $80, $02, $00, $B0, $85, $80
000ae8 0201
000ae9 0280
000aea b000
000aeb 8085
          	.db	$09, $90, $20, $06, $48, $02, $08, $20
000aec 9009
000aed 0620
000aee 0248
000aef 2008
          	.db	$40, $60, $80, $20, $10, $10, $32, $00
000af0 6040
000af1 2080
000af2 1010
000af3 0032
          	.db	$40, $40, $04, $40, $42, $04, $10, $10
000af4 4040
000af5 4004
000af6 0442
000af7 1010
          	.db	$08, $00, $00, $22, $00, $18, $00, $03
000af8 0008
000af9 2200
000afa 1800
000afb 0300
          	.db	$03, $01, $0C, $00, $02, $08, $00, $10
000afc 0103
000afd 000c
000afe 0802
000aff 1000
          	.db	$40, $00, $00, $50, $20, $03, $10, $D6
000b00 0040
000b01 5000
000b02 0320
000b03 d610
          	.db	$E0, $01, $0D, $80, $07, $30, $20, $06
000b04 01e0
000b05 800d
000b06 3007
000b07 0620
          	.db	$C0, $00, $78, $00, $03, $60, $00, $3C
000b08 00c0
000b09 0078
000b0a 6003
000b0b 3c00
          	.db	$90, $01, $32, $20, $03, $40, $02, $00
000b0c 0190
000b0d 2032
000b0e 4003
000b0f 0002
          	.db	$10, $04, $22, $02, $88, $01, $F1, $00
000b10 0410
000b11 0222
000b12 0188
000b13 00f1
          	.db	$16, $C0, $03, $78, $00, $03, $60, $00
000b14 c016
000b15 7803
000b16 0300
000b17 0060
          	.db	$0D, $80, $01, $02, $00, $06, $C0, $03
000b18 800d
000b19 0201
000b1a 0600
000b1b 03c0
          	.db	$62, $CD, $80, $01, $02, $04, $20, $00
000b1c cd62
000b1d 0180
000b1e 0402
000b1f 0020
          	.db	$00, $03, $01, $00, $00, $88, $81, $30
000b20 0300
000b21 0001
000b22 8800
000b23 3081
          	.db	$00, $06, $05, $40, $02, $00, $20, $04
000b24 0600
000b25 4005
000b26 0002
000b27 0420
          	.db	$22, $02, $10, $00, $01, $00, $00, $04
000b28 0222
000b29 0010
000b2a 0001
000b2b 0400
          	.db	$01, $00, $10, $00, $84, $01, $01, $10
000b2c 0001
000b2d 0010
000b2e 0184
000b2f 1001
          	.db	$06, $02, $00, $00, $10, $03, $20, $89
000b30 0206
000b31 0000
000b32 0310
000b33 8920
          	.db	$80, $01, $28, $40, $40, $80, $04, $90
000b34 0180
000b35 4028
000b36 8040
000b37 9004
          	.db	$50, $03, $08, $10, $44, $A0, $01, $30
000b38 0350
000b39 1008
000b3a a044
000b3b 3001
          	.db	$00, $06, $A8, $20, $03, $D2, $D2, $05
000b3c 0600
000b3d 20a8
000b3e d203
000b3f 05d2
          	.db	$12, $02, $02, $00, $24, $C0, $24, $10
000b40 0212
000b41 0002
000b42 c024
000b43 1024
          	.db	$01, $03, $64, $04, $80, $80, $11, $00
000b44 0301
000b45 0464
000b46 8080
000b47 0011
          	.db	$02, $06, $00, $00, $80, $00, $03, $00
000b48 0602
000b49 0000
000b4a 0080
000b4b 0003
          	.db	$ED, $80, $05, $06, $91, $00, $04, $02
000b4c 80ed
000b4d 0605
000b4e 0091
000b4f 0204
          	.db	$83, $00, $23, $00, $20, $8C, $02, $08
000b50 0083
000b51 0023
000b52 8c20
000b53 0802
          	.db	$34, $00, $00, $10, $44, $03, $D2, $D2
000b54 0034
000b55 1000
000b56 0344
000b57 d2d2
          	.db	$05, $12, $02, $02, $00, $00, $14, $00
000b58 1205
000b59 0202
000b5a 0000
000b5b 0014
          	.db	$18, $51, $03, $60, $84, $01, $80, $89
000b5c 5118
000b5d 6003
000b5e 0184
000b5f 8980
          	.db	$34, $00, $26, $01, $00, $02, $02, $00
000b60 0034
000b61 0126
000b62 0200
000b63 0002
          	.db	$00, $C0, $80, $01, $10, $04, $04, $03
000b64 c000
000b65 0180
000b66 0410
000b67 0304
          	.db	$02, $00, $0C, $00, $80, $30, $00, $00
000b68 0002
000b69 000c
000b6a 3080
000b6b 0000
          	.db	$41, $03, $90, $40, $90, $02, $03, $10
000b6c 0341
000b6d 4090
000b6e 0290
000b6f 1003
          	.db	$00, $12, $04, $18, $00, $03, $60, $05
000b70 1200
000b71 1804
000b72 0300
000b73 0560
          	.db	$06, $05, $E5, $40, $00, $20, $00, $00
000b74 0506
000b75 40e5
000b76 2000
000b77 0000
          	.db	$E4, $00, $00, $88, $00, $78, $00, $02
000b78 00e4
000b79 8800
000b7a 7800
000b7b 0200
          	.db	$C0, $01, $30, $00, $07, $80, $03, $90
000b7c 01c0
000b7d 0030
000b7e 8007
000b7f 9003
          	.db	$40, $90, $02, $03, $10, $00, $12, $00
000b80 9040
000b81 0302
000b82 0010
000b83 0012
          	.db	$00, $07, $C0, $00, $04, $C0, $03, $10
000b84 0700
000b85 00c0
000b86 c004
000b87 1003
          	.db	$00, $03, $E0, $41, $00, $88, $01, $02
000b88 0300
000b89 41e0
000b8a 8800
000b8b 0201
          	.db	$10, $00, $00, $F8, $24, $00, $00, $05
000b8c 0010
000b8d f800
000b8e 0024
000b8f 0500
          	.db	$40, $D0, $00, $00, $40, $00, $60, $00
000b90 d040
000b91 0000
000b92 0040
000b93 0060
          	.db	$01, $A0, $01, $30, $80, $06, $00, $14
000b94 a001
000b95 3001
000b96 0680
000b97 1400
          	.db	$02, $D0, $D2, $D0, $00, $40, $02, $38
000b98 d002
000b99 d0d2
000b9a 4000
000b9b 3802
          	.db	$02, $12, $02, $A0, $06, $C0, $28, $02
000b9c 1202
000b9d a002
000b9e c006
000b9f 0228
          	.db	$00, $03, $08, $00, $01, $00, $04, $04
000ba0 0300
000ba1 0008
000ba2 0001
000ba3 0404
          	.db	$80, $00, $00, $80, $E8, $04, $08, $90
000ba4 0080
000ba5 8000
000ba6 04e8
000ba7 9008
          	.db	$40, $10, $C8, $00, $01, $10, $10, $60
000ba8 1040
000ba9 00c8
000baa 1001
000bab 6010
          	.db	$80, $40, $80, $05, $00, $04, $06, $48
000bac 4080
000bad 0580
000bae 0400
000baf 4806
          	.db	$04, $08, $00, $00, $D0, $D2, $D0, $00
000bb0 0804
000bb1 0000
000bb2 d2d0
000bb3 00d0
          	.db	$40, $04, $00, $00, $38, $02, $12, $02
000bb4 0440
000bb5 0000
000bb6 0238
000bb7 0212
          	.db	$20, $06, $08, $18, $40, $08, $03, $00
000bb8 0620
000bb9 1808
000bba 0840
000bbb 0003
          	.db	$81, $8C, $10, $08, $80, $10, $40, $08
000bbc 8c81
000bbd 0810
000bbe 1080
000bbf 0840
          	.db	$00, $40, $20, $00, $00, $A5, $60, $00
000bc0 4000
000bc1 0020
000bc2 a500
000bc3 0060
          	.db	$0D, $80, $01, $F0, $00, $06, $C0, $00
000bc4 800d
000bc5 f001
000bc6 0600
000bc7 00c0
          	.db	$7A, $00, $03, $E8, $01, $0D, $80, $07
000bc8 007a
000bc9 e803
000bca 0d01
000bcb 0780
          	.db	$30, $20, $1C, $02, $50, $50, $D0, $42
000bcc 2030
000bcd 021c
000bce 5050
000bcf 42d0
          	.db	$0E, $00, $00, $10, $00, $10, $3A, $A2
000bd0 000e
000bd1 1000
000bd2 1000
000bd3 a23a
          	.db	$07, $F0, $00, $06, $80, $03, $18, $00
000bd4 f007
000bd5 0600
000bd6 0380
000bd7 0018
          	.db	$0F, $60, $00, $0D, $80, $01, $00, $00
000bd8 600f
000bd9 0d00
000bda 0180
000bdb 0000
          	.db	$06, $00, $00, $80, $A9, $88, $01, $01
000bdc 0006
000bdd 8000
000bde 88a9
000bdf 0101
          	.db	$20, $00, $02, $80, $00, $08, $03, $02
000be0 0020
000be1 8002
000be2 0800
000be3 0203
          	.db	$00, $0C, $08, $80, $30, $08, $00, $04
000be4 0c00
000be5 8008
000be6 0830
000be7 0400
          	.db	$20, $16, $02, $50, $50, $D0, $42, $0B
000be8 1620
000be9 5002
000bea d050
000beb 0b42
          	.db	$00, $00, $10, $00, $10, $3A, $22, $00
000bec 0000
000bed 0010
000bee 3a10
000bef 0022
          	.db	$04, $00, $18, $00, $03, $60, $00, $0C
000bf0 0004
000bf1 0018
000bf2 6003
000bf3 0c00
          	.db	$80, $01, $00, $00, $06, $02, $00, $10
000bf4 0180
000bf5 0000
000bf6 0206
000bf7 1000
          	.db	$08, $00, $00, $D8, $A0, $11, $20, $02
000bf8 0008
000bf9 d800
000bfa 11a0
000bfb 0220
          	.db	$02, $10, $04, $10, $41, $23, $08, $10
000bfc 1002
000bfd 1004
000bfe 2341
000bff 1008
          	.db	$8C, $20, $04, $30, $02, $40, $80, $08
000c00 208c
000c01 3004
000c02 4002
000c03 0880
          	.db	$10, $00, $00, $C0, $02, $D0, $02, $20
000c04 0010
000c05 c000
000c06 d002
000c07 2002
          	.db	$08, $00, $00, $18, $02, $02, $00, $90
000c08 0008
000c09 1800
000c0a 0202
000c0b 9000
          	.db	$40, $C0, $22, $18, $11, $03, $68, $12
000c0c c040
000c0d 1822
000c0e 0311
000c0f 1268
          	.db	$0C, $80, $49, $00, $05, $06, $00, $00
000c10 800c
000c11 0049
000c12 0605
000c13 0000
          	.db	$40, $00, $00, $80, $8D, $13, $10, $00
000c14 0040
000c15 8000
000c16 138d
000c17 0010
          	.db	$00, $C0, $02, $D0, $02, $20, $08, $00
000c18 c000
000c19 d002
000c1a 2002
000c1b 0008
          	.db	$00, $18, $02, $02, $00, $10, $12, $80
000c1c 1800
000c1d 0202
000c1e 1000
000c1f 8012
          	.db	$F7, $00, $00, $04, $80, $02, $02, $03
000c20 00f7
000c21 0400
000c22 0280
000c23 0302
          	.db	$01, $00, $00, $04, $80, $00, $10, $04
000c24 0001
000c25 0400
000c26 0080
000c27 0410
          	.db	$40, $92, $52, $0A, $04, $20, $02, $04
000c28 9240
000c29 0a52
000c2a 2004
000c2b 0402
          	.db	$00, $10, $00, $02, $03, $01, $00, $00
000c2c 1000
000c2d 0200
000c2e 0103
000c2f 0000
          	.db	$04, $80, $00, $10, $00, $02, $40, $00
000c30 8004
000c31 1000
000c32 0200
000c33 0040
          	.db	$00, $AC, $17, $40, $92, $52, $02, $04
000c34 ac00
000c35 4017
000c36 5292
000c37 0402
          	.db	$20, $02, $14, $9E, $24, $08, $05, $80
000c38 0220
000c39 9e14
000c3a 0824
000c3b 8005
          	.db	$00, $10, $40, $02, $40, $00, $09, $42
000c3c 1000
000c3d 0240
000c3e 0040
000c3f 4209
          	.db	$01, $20, $80, $04, $80, $00, $10, $03
000c40 2001
000c41 0480
000c42 0080
000c43 0310
          	.db	$10, $10, $00, $52, $04, $10, $12, $10
000c44 1010
000c45 5200
000c46 1004
000c47 1012
          	.db	$80, $20, $14, $00, $02, $40, $08, $09
000c48 2080
000c49 0014
000c4a 4002
000c4b 0908
          	.db	$42, $01, $20, $80, $04, $80, $00, $10
000c4c 0142
000c4d 8020
000c4e 8004
000c4f 1000
          	.db	$00, $02, $40, $00, $10, $A5, $04, $15
000c50 0200
000c51 0040
000c52 a510
000c53 1504
          	.db	$10, $10, $00, $52, $04, $10, $12, $10
000c54 1010
000c55 5200
000c56 1004
000c57 1012
          	.db	$05, $10, $02, $0B, $90, $FF, $40, $00
000c58 1005
000c59 0b02
000c5a ff90
000c5b 0040
          	.db	$04, $04, $80, $00, $10, $00, $00, $40
000c5c 0404
000c5d 0080
000c5e 0010
000c5f 4000
          	.db	$08, $90, $42, $10, $D0, $02, $02, $10
000c60 9008
000c61 1042
000c62 02d0
000c63 1002
          	.db	$08, $02, $01, $04, $10, $00, $02, $00
000c64 0208
000c65 0401
000c66 0010
000c67 0002
          	.db	$00, $04, $07, $FE, $08, $04, $40, $00
000c68 0400
000c69 fe07
000c6a 0408
000c6b 0040
          	.db	$08, $0D, $90, $42, $10, $D0, $02, $02
000c6c 0d08
000c6d 4290
000c6e d010
000c6f 0202
          	.db	$10, $08, $15, $20, $9B, $20, $00, $04
000c70 0810
000c71 2015
000c72 209b
000c73 0400
          	.db	$80, $20, $14, $08, $42, $40, $00, $08
000c74 2080
000c75 0814
000c76 4042
000c77 0800
          	.db	$00, $41, $28, $00, $04, $84, $20, $14
000c78 4100
000c79 0028
000c7a 8404
000c7b 1420
          	.db	$40, $0E, $80, $00, $10, $84, $82, $50
000c7c 0e40
000c7d 0080
000c7e 8410
000c7f 5082
          	.db	$88, $08, $00, $01, $20, $08, $06, $80
000c80 0888
000c81 0100
000c82 0820
000c83 8006
          	.db	$20, $14, $84, $82, $50, $08, $01, $82
000c84 1420
000c85 8284
000c86 0850
000c87 8201
          	.db	$00, $00, $10, $03, $10, $00, $00, $01
000c88 0000
000c89 0310
000c8a 0010
000c8b 0100
          	.db	$03, $04, $03, $20, $00, $00, $80, $03
000c8c 0403
000c8d 2003
000c8e 0000
000c8f 0380
          	.db	$20, $00, $00, $40, $03, $10, $03, $04
000c90 0020
000c91 4000
000c92 1003
000c93 0403
          	.db	$02, $01, $00, $00, $04, $06, $B2, $02
000c94 0102
000c95 0000
000c96 0604
000c97 02b2
          	.db	$08, $00, $40, $22, $40, $0D, $F9, $29
000c98 0008
000c99 2240
000c9a 0d40
000c9b 29f9
          	.db	$01, $0B, $80, $E8, $02, $20, $0A, $40
000c9c 0b01
000c9d e880
000c9e 2002
000c9f 400a
          	.db	$1B, $04, $00, $00, $10, $05, $40, $81
000ca0 041b
000ca1 0000
000ca2 0510
000ca3 8140
          	.db	$FF, $00, $00, $04, $40, $02, $08, $02
000ca4 00ff
000ca5 0400
000ca6 0240
000ca7 0208
          	.db	$05, $40, $1D, $40, $01, $07, $B2, $00
000ca8 4005
000ca9 401d
000caa 0701
000cab 00b2
          	.db	$00, $21, $00, $01, $20, $00, $00, $80
000cac 2100
000cad 0100
000cae 0020
000caf 8000
          	.db	$00, $10, $00, $02, $40, $00, $00, $10
000cb0 1000
000cb1 0200
000cb2 0040
000cb3 1000
          	.db	$00, $24, $02, $40, $02, $04, $02, $01
000cb4 2400
000cb5 4002
000cb6 0402
000cb7 0102
          	.db	$02, $02, $05, $04, $06, $01, $04, $04
000cb8 0202
000cb9 0405
000cba 0106
000cbb 0404
          	.db	$E5, $02, $20, $0C, $02, $12, $10, $0B
000cbc 02e5
000cbd 0c20
000cbe 1202
000cbf 0b10
          	.db	$01, $00, $02, $02, $00, $80, $CB, $03
000cc0 0001
000cc1 0202
000cc2 8000
000cc3 03cb
          	.db	$02, $01, $02, $82, $02, $02, $40, $00
000cc4 0102
000cc5 8202
000cc6 0202
000cc7 0040
          	.db	$00, $04, $40, $0F, $80, $00, $22, $80
000cc8 0400
000cc9 0f40
000cca 0080
000ccb 8022
          	.db	$02, $08, $10, $00, $00, $40, $04, $00
000ccc 0802
000ccd 0010
000cce 4000
000ccf 0004
          	.db	$02, $00, $20, $00, $04, $00, $00, $E7
000cd0 0002
000cd1 0020
000cd2 0004
000cd3 e700
          	.db	$00, $00, $60, $90, $00, $0C, $00, $00
000cd4 0000
000cd5 9060
000cd6 0c00
000cd7 0000
          	.db	$40, $50, $02, $00, $18, $08, $2D, $01
000cd8 5040
000cd9 0002
000cda 0818
000cdb 012d
          	.db	$80, $01, $10, $0F, $80, $00, $34, $80
000cdc 0180
000cdd 0f10
000cde 0080
000cdf 8034
          	.db	$02, $48, $4B, $02, $15, $80, $00, $02
000ce0 4802
000ce1 024b
000ce2 8015
000ce3 0200
          	.db	$80, $04, $18, $0A, $80, $AA, $00, $01
000ce4 0480
000ce5 0a18
000ce6 aa80
000ce7 0100
          	.db	$20, $00, $0C, $82, $00, $18, $12, $40
000ce8 0020
000ce9 820c
000cea 1800
000ceb 4012
          	.db	$20, $58, $04, $01, $44, $00, $0E, $14
000cec 5820
000ced 0104
000cee 0044
000cef 140e
          	.db	$00, $8A, $0F, $80, $00, $B8, $04, $46
000cf0 8a00
000cf1 800f
000cf2 b800
000cf3 4604
          	.db	$40, $A8, $54, $1D, $20, $09, $30, $00
000cf4 a840
000cf5 1d54
000cf6 0920
000cf7 0030
          	.db	$82, $00, $00, $80, $00, $28, $82, $88
000cf8 0082
000cf9 8000
000cfa 2800
000cfb 8882
          	.db	$06, $04, $00, $00, $40, $10, $04, $00
000cfc 0406
000cfd 0000
000cfe 1040
000cff 0004
          	.db	$00, $01, $20, $14, $20, $00, $10, $00
000d00 0100
000d01 1420
000d02 0020
000d03 0010
          	.db	$20, $10, $01, $00, $00, $04, $00, $02
000d04 1020
000d05 0001
000d06 0400
000d07 0200
          	.db	$04, $80, $9D, $80, $00, $20, $00, $02
000d08 8004
000d09 809d
000d0a 2000
000d0b 0200
          	.db	$80, $00, $08, $10, $80, $00, $10, $00
000d0c 0080
000d0d 1008
000d0e 0080
000d0f 0010
          	.db	$08, $00, $00, $08, $04, $12, $04, $20
000d10 0008
000d11 0800
000d12 1204
000d13 2004
          	.db	$00, $04, $00, $02, $00, $08, $00, $01
000d14 0400
000d15 0200
000d16 0800
000d17 0100
          	.db	$10, $00, $00, $01, $03, $80, $F6, $00
000d18 0010
000d19 0100
000d1a 8003
000d1b 00f6
          	.db	$04, $00, $80, $10, $10, $00, $20, $00
000d1c 0004
000d1d 1080
000d1e 0010
000d1f 0020
          	.db	$08, $08, $01, $21, $00, $00, $08, $80
000d20 0808
000d21 2101
000d22 0000
000d23 8008
          	.db	$00, $00, $02, $0E, $80, $00, $00, $02
000d24 0000
000d25 0e02
000d26 0080
000d27 0200
          	.db	$40, $02, $80, $00, $20, $01, $00, $80
000d28 0240
000d29 0080
000d2a 0120
000d2b 8000
          	.db	$00, $10, $00, $40, $00, $00, $80, $E8
000d2c 1000
000d2d 4000
000d2e 0000
000d2f e880
          	.db	$B0, $04, $40, $01, $42, $01, $00, $00
000d30 04b0
000d31 0140
000d32 0142
000d33 0000
          	.db	$04, $88, $00, $01, $00, $00, $08, $A0
000d34 8804
000d35 0100
000d36 0000
000d37 a008
          	.db	$00, $00, $04, $02, $08, $00, $00, $10
000d38 0000
000d39 0204
000d3a 0008
000d3b 1000
          	.db	$03, $04, $00, $00, $08, $02, $08, $02
000d3c 0403
000d3d 0000
000d3e 0208
000d3f 0208
          	.db	$18, $00, $00, $40, $02, $0C, $03, $C0
000d40 0018
000d41 4000
000d42 0c02
000d43 c003
          	.db	$BF, $06, $01, $00, $00, $04, $08, $03
000d44 06bf
000d45 0001
000d46 0400
000d47 0308
          	.db	$00, $00, $08, $06, $04, $05, $20, $00
000d48 0000
000d49 0608
000d4a 0504
000d4b 0020
          	.db	$44, $02, $04, $02, $08, $02, $08, $00
000d4c 0244
000d4d 0204
000d4e 0208
000d4f 0008
          	.db	$04, $80, $8E, $06, $30, $07, $04, $0B
000d50 8004
000d51 068e
000d52 0730
000d53 0b04
          	.db	$02, $0A, $02, $14, $40, $07, $04, $10
000d54 0a02
000d55 1402
000d56 0740
000d57 1004
          	.db	$02, $80, $F9, $90, $01, $C0, $00, $06
000d58 8002
000d59 90f9
000d5a c001
000d5b 0600
          	.db	$00, $10, $44, $00, $03, $40, $08, $0C
000d5c 1000
000d5d 0044
000d5e 4003
000d5f 0c08
          	.db	$80, $04, $00, $00, $06, $C0, $80, $0F
000d60 0480
000d61 0000
000d62 c006
000d63 0f80
          	.db	$06, $08, $20, $10, $00, $02, $40, $02
000d64 0806
000d65 1020
000d66 0200
000d67 0240
          	.db	$02, $C0, $AA, $00, $40, $84, $00, $00
000d68 c002
000d69 00aa
000d6a 8440
000d6b 0000
          	.db	$11, $00, $00, $08, $80, $08, $40, $00
000d6c 0011
000d6d 0800
000d6e 0880
000d6f 0040
          	.db	$22, $00, $00, $80, $00, $10, $0F, $80
000d70 0022
000d71 8000
000d72 1000
000d73 800f
          	.db	$10, $40, $00, $80, $A3, $04, $80, $02
000d74 4010
000d75 8000
000d76 04a3
000d77 0280
          	.db	$08, $04, $26, $93, $02, $20, $00, $00
000d78 0408
000d79 9326
000d7a 2002
000d7b 0000
          	.db	$80, $00, $02, $40, $00, $40, $02, $01
000d7c 0080
000d7d 4002
000d7e 4000
000d7f 0102
          	.db	$20, $08, $00, $80, $00, $10, $0F, $80
000d80 0820
000d81 8000
000d82 1000
000d83 800f
          	.db	$00, $00, $02, $00, $00, $08, $00, $00
000d84 0000
000d85 0002
000d86 0800
000d87 0000
          	.db	$81, $00, $04, $80, $02, $02, $00, $00
000d88 0081
000d89 8004
000d8a 0202
000d8b 0000
          	.db	$08, $A5, $03, $08, $40, $03, $20, $05
000d8c a508
000d8d 0803
000d8e 0340
000d8f 0520
          	.db	$08, $0A, $40, $05, $08, $40, $00, $08
000d90 0a08
000d91 0540
000d92 4008
000d93 0800
          	.db	$06, $08, $00, $08, $04, $80, $9F, $14
000d94 0806
000d95 0800
000d96 8004
000d97 149f
          	.db	$80, $02, $00, $00, $80, $01, $00, $00
000d98 0280
000d99 0000
000d9a 0180
000d9b 0000
          	.db	$40, $02, $C0, $04, $40, $80, $01, $00
000d9c 0240
000d9d 04c0
000d9e 8040
000d9f 0001
          	.db	$01, $0A, $80, $89, $04, $40, $00, $00
000da0 0a01
000da1 8980
000da2 4004
000da3 0000
          	.db	$10, $15, $10, $03, $02, $01, $10, $03
000da4 1510
000da5 0310
000da6 0102
000da7 0310
          	.db	$40, $07, $08, $00, $00, $20, $F4, $10
000da8 0740
000da9 0008
000daa 2000
000dab 10f4
          	.db	$03, $11, $00, $00, $40, $00, $20, $00
000dac 1103
000dad 0000
000dae 0040
000daf 0020
          	.db	$00, $80, $40, $00, $00, $02, $10, $80
000db0 8000
000db1 0040
000db2 0200
000db3 8010
          	.db	$00, $10, $80, $05, $02, $40, $00, $08
000db4 1000
000db5 0580
000db6 4002
000db7 0800
          	.db	$00, $40, $20, $00, $04, $00, $82, $D8
000db8 4000
000db9 0020
000dba 0004
000dbb d882
          	.db	$0A, $02, $0C, $34, $00, $30, $48, $00
000dbc 020a
000dbd 340c
000dbe 3000
000dbf 0048
          	.db	$08, $00, $00, $20, $00, $61, $80, $05
000dc0 0008
000dc1 2000
000dc2 6100
000dc3 0580
          	.db	$08, $20, $00, $00, $03, $02, $24, $00
000dc4 2008
000dc5 0000
000dc6 0203
000dc7 0024
          	.db	$20, $00, $81, $0D, $12, $C0, $02, $40
000dc8 0020
000dc9 0d81
000dca c012
000dcb 4002
          	.db	$21, $00, $08, $05, $01, $20, $A0, $10
000dcc 0021
000dcd 0508
000dce 2001
000dcf 10a0
          	.db	$80, $04, $13, $5A, $2A, $BC, $10, $10
000dd0 0480
000dd1 5a13
000dd2 bc2a
000dd3 1010
          	.db	$01, $06, $A0, $00, $12, $14, $00, $40
000dd4 0601
000dd5 00a0
000dd6 1412
000dd7 4000
          	.db	$20, $01, $18, $21, $16, $01, $00, $50
000dd8 0120
000dd9 2118
000dda 0116
000ddb 5000
          	.db	$01, $10, $0F, $BA, $80, $20, $30, $10
000ddc 1001
000ddd ba0f
000dde 2080
000ddf 1030
          	.db	$20, $8A, $0C, $44, $08, $39, $10, $01
000de0 8a20
000de1 440c
000de2 3908
000de3 0110
          	.db	$00, $00, $2E, $08, $00, $10, $A0, $E5
000de4 0000
000de5 082e
000de6 1000
000de7 e5a0
          	.db	$10, $08, $20, $06, $01, $10, $02, $00
000de8 0810
000de9 0620
000dea 1001
000deb 0002
          	.db	$20, $04, $04, $00, $00, $10, $02, $20
000dec 0420
000ded 0004
000dee 1000
000def 2002
          	.db	$08, $00, $00, $40, $93, $02, $08, $00
000df0 0008
000df1 4000
000df2 0293
000df3 0008
          	.db	$04, $20, $08, $00, $80, $00, $00, $04
000df4 2004
000df5 0008
000df6 0080
000df7 0400
          	.db	$08, $04, $10, $10, $11, $00, $08, $02
000df8 0408
000df9 1010
000dfa 0011
000dfb 0208
          	.db	$10, $00, $80, $40, $07, $80, $FE, $02
000dfc 0010
000dfd 4080
000dfe 8007
000dff 02fe
          	.db	$20, $0A, $80, $04, $80, $02, $80, $00
000e00 0a20
000e01 0480
000e02 0280
000e03 0080
          	.db	$00, $10, $03, $40, $05, $80, $0D, $80
000e04 1000
000e05 4003
000e06 8005
000e07 800d
          	.db	$EE, $02, $01, $1A, $00, $06, $80, $00
000e08 02ee
000e09 1a01
000e0a 0600
000e0b 0080
          	.db	$0C, $00, $02, $64, $00, $08, $10, $01
000e0c 000c
000e0d 6402
000e0e 0800
000e0f 0110
          	.db	$06, $00, $06, $C0, $10, $03, $05, $10
000e10 0006
000e11 c006
000e12 0310
000e13 1005
          	.db	$00, $20, $06, $80, $01, $08, $B8, $10
000e14 2000
000e15 8006
000e16 0801
000e17 10b8
          	.db	$18, $02, $06, $01, $02, $80, $02, $20
000e18 0218
000e19 0106
000e1a 8002
000e1b 2002
          	.db	$00, $00, $08, $08, $C0, $A4, $02, $04
000e1c 0000
000e1d 0808
000e1e a4c0
000e1f 0402
          	.db	$23, $20, $04, $22, $07, $80, $9D, $04
000e20 2023
000e21 2204
000e22 8007
000e23 049d
          	.db	$20, $08, $05, $40, $02, $01, $04, $10
000e24 0820
000e25 4005
000e26 0102
000e27 1004
          	.db	$22, $80, $92, $00, $00, $40, $10, $09
000e28 8022
000e29 0092
000e2a 4000
000e2b 0910
          	.db	$40, $17, $10, $00, $00, $02, $0B, $80
000e2c 1740
000e2d 0010
000e2e 0200
000e2f 800b
          	.db	$DB, $00, $40, $00, $00, $81, $04, $81
000e30 00db
000e31 0040
000e32 8100
000e33 8104
          	.db	$00, $08, $84, $10, $40, $00, $02, $62
000e34 0800
000e35 1084
000e36 0040
000e37 6202
          	.db	$00, $00, $80, $04, $21, $0F, $80, $14
000e38 0000
000e39 0480
000e3a 0f21
000e3b 1480
          	.db	$10, $02, $00, $00, $08, $40, $00, $80
000e3c 0210
000e3d 0000
000e3e 4008
000e3f 8000
          	.db	$02, $00, $00, $80, $05, $00, $06, $02
000e40 0002
000e41 8000
000e42 0005
000e43 0206
          	.db	$00, $80, $F9, $00, $80, $02, $02, $10
000e44 8000
000e45 00f9
000e46 0280
000e47 1002
          	.db	$02, $10, $00, $00, $28, $00, $04, $03
000e48 1002
000e49 0000
000e4a 0028
000e4b 0304
          	.db	$02, $11, $02, $40, $00, $08, $00, $00
000e4c 1102
000e4d 4002
000e4e 0800
000e4f 0000
          	.db	$20, $05, $02, $40, $00, $08, $00, $80
000e50 0520
000e51 4002
000e52 0800
000e53 8000
          	.db	$C4, $00, $00, $02, $04, $10, $2B, $40
000e54 00c4
000e55 0200
000e56 1004
000e57 402b
          	.db	$00, $80, $AB, $14, $04, $00, $00, $10
000e58 8000
000e59 14ab
000e5a 0004
000e5b 1000
          	.db	$04, $02, $00, $08, $07, $80, $03, $04
000e5c 0204
000e5d 0800
000e5e 8007
000e5f 0403
          	.db	$02, $07, $DC, $02, $0C, $00, $08, $06
000e60 0702
000e61 02dc
000e62 000c
000e63 0608
          	.db	$10, $01, $02, $08, $14, $20, $00, $40
000e64 0110
000e65 0802
000e66 2014
000e67 4000
          	.db	$00, $20, $00, $00, $80, $00, $00, $08
000e68 2000
000e69 0000
000e6a 0080
000e6b 0800
          	.db	$00, $00, $20, $00, $00, $83, $02, $40
000e6c 0000
000e6d 0020
000e6e 8300
000e6f 4002
          	.db	$23, $04, $00, $01, $07, $20, $02, $80
000e70 0423
000e71 0100
000e72 2007
000e73 8002
          	.db	$AE, $02, $80, $06, $D0, $05, $0D, $04
000e74 02ae
000e75 0680
000e76 05d0
000e77 040d
          	.db	$D0, $04, $10, $50, $42, $0A, $04, $00
000e78 04d0
000e79 5010
000e7a 0a42
000e7b 0004
          	.db	$68, $01, $25, $22, $88, $04, $A1, $82
000e7c 0168
000e7d 2225
000e7e 0488
000e7f 82a1
          	.db	$D0, $00, $00, $40, $08, $00, $98, $03
000e80 00d0
000e81 4000
000e82 0008
000e83 0398
          	.db	$06, $C0, $05, $0C, $04, $80, $40, $10
000e84 c006
000e85 0c05
000e86 8004
000e87 1040
          	.db	$C0, $00, $10, $00, $00, $60, $20, $08
000e88 00c0
000e89 0010
000e8a 6000
000e8b 0820
          	.db	$03, $04, $C0, $02, $02, $82, $BA, $04
000e8c 0403
000e8d 02c0
000e8e 8202
000e8f 04ba
          	.db	$F0, $05, $0C, $04, $40, $13, $18, $00
000e90 05f0
000e91 040c
000e92 1340
000e93 0018
          	.db	$00, $60, $20, $0F, $80, $01, $10, $88
000e94 6000
000e95 0f20
000e96 0180
000e97 8810
          	.db	$07, $F2, $04, $E1, $04, $C0, $05, $0C
000e98 f207
000e99 e104
000e9a c004
000e9b 0c05
          	.db	$04, $80, $44, $11, $44, $10, $08, $00
000e9c 8004
000e9d 1144
000e9e 1044
000e9f 0008
          	.db	$60, $04, $28, $84, $90, $00, $01, $44
000ea0 0460
000ea1 8428
000ea2 0090
000ea3 4401
          	.db	$D0, $02, $10, $04, $8B, $03, $10, $04
000ea4 02d0
000ea5 0410
000ea6 038b
000ea7 0410
          	.db	$02, $04, $40, $04, $40, $08, $11, $24
000ea8 0402
000ea9 0440
000eaa 0840
000eab 2411
          	.db	$88, $00, $00, $20, $02, $44, $00, $09
000eac 0088
000ead 2000
000eae 4402
000eaf 0900
          	.db	$00, $10, $22, $C0, $02, $08, $01, $CF
000eb0 1000
000eb1 c022
000eb2 0802
000eb3 cf01
          	.db	$02, $80, $00, $20, $40, $04, $03, $04
000eb4 8002
000eb5 2000
000eb6 0440
000eb7 0403
          	.db	$03, $B0, $40, $10, $30, $00, $1E, $10
000eb8 b003
000eb9 1040
000eba 0030
000ebb 101e
          	.db	$00, $78, $10, $0F, $E8, $41, $0C, $80
000ebc 7800
000ebd 0f10
000ebe 41e8
000ebf 800c
          	.db	$07, $E4, $00, $00, $C0, $00, $00, $BF
000ec0 e407
000ec1 0000
000ec2 00c0
000ec3 bf00
          	.db	$03, $06, $0C, $40, $40, $11, $20, $08
000ec4 0603
000ec5 400c
000ec6 1140
000ec7 0820
          	.db	$00, $00, $60, $10, $04, $04, $41, $00
000ec8 0000
000ec9 1060
000eca 0404
000ecb 0041
          	.db	$00, $02, $D0, $03, $80, $82, $03, $06
000ecc 0200
000ecd 03d0
000ece 8280
000ecf 0603
          	.db	$0C, $80, $02, $11, $02, $58, $20, $00
000ed0 800c
000ed1 1102
000ed2 5802
000ed3 0020
          	.db	$60, $01, $8C, $80, $01, $00, $21, $16
000ed4 0160
000ed5 808c
000ed6 0001
000ed7 1621
          	.db	$C8, $02, $20, $01, $AE, $02, $80, $00
000ed8 02c8
000ed9 0120
000eda 02ae
000edb 0080
          	.db	$10, $84, $00, $40, $08, $00, $00, $0D
000edc 8410
000edd 4000
000ede 0008
000edf 0d00
          	.db	$04, $50, $07, $88, $06, $C4, $02, $51
000ee0 5004
000ee1 8807
000ee2 c406
000ee3 5102
          	.db	$42, $0A, $41, $02, $25, $22, $00, $00
000ee4 0a42
000ee5 0241
000ee6 2225
000ee7 0000
          	.db	$80, $12, $02, $40, $03, $40, $A1, $04
000ee8 1280
000ee9 4002
000eea 4003
000eeb 04a1
          	.db	$40, $03, $01, $00, $0C, $05, $80, $06
000eec 0340
000eed 0001
000eee 050c
000eef 0680
          	.db	$30, $06, $18, $04, $02, $10, $02, $01
000ef0 0630
000ef1 0418
000ef2 1002
000ef3 0102
          	.db	$00, $08, $00, $81, $00, $00, $04, $01
000ef4 0800
000ef5 8100
000ef6 0000
000ef7 0104
          	.db	$04, $E9, $04, $80, $40, $00, $00, $03
000ef8 e904
000ef9 8004
000efa 0040
000efb 0300
          	.db	$00, $00, $0C, $05, $40, $06, $20, $06
000efc 0000
000efd 050c
000efe 0640
000eff 0620
          	.db	$90, $07, $C0, $02, $03, $00, $00, $0C
000f00 0790
000f01 02c0
000f02 0003
000f03 0c00
          	.db	$80, $01, $00, $80, $07, $04, $81, $90
000f04 0180
000f05 8000
000f06 0407
000f07 9081
          	.db	$03, $06, $04, $02, $00, $00, $41, $00
000f08 0603
000f09 0204
000f0a 0000
000f0b 0041
          	.db	$00, $0C, $05, $02, $0F, $44, $C2, $44
000f0c 0c00
000f0d 0205
000f0e 440f
000f0f 44c2
          	.db	$80, $20, $0A, $01, $00, $28, $04, $85
000f10 2080
000f11 010a
000f12 2800
000f13 8504
          	.db	$00, $00, $84, $03, $08, $30, $D0, $04
000f14 0000
000f15 0384
000f16 3008
000f17 04d0
          	.db	$40, $44, $00, $00, $A2, $00, $00, $20
000f18 4440
000f19 0000
000f1a 00a2
000f1b 2000
          	.db	$08, $04, $08, $0F, $22, $00, $40, $80
000f1c 0408
000f1d 0f08
000f1e 0022
000f1f 8040
          	.db	$00, $01, $01, $00, $44, $80, $84, $00
000f20 0100
000f21 0001
000f22 8044
000f23 0084
          	.db	$00, $22, $04, $14, $F4, $02, $80, $06
000f24 2200
000f25 1404
000f26 02f4
000f27 0680
          	.db	$30, $00, $00, $C0, $03, $00, $00, $03
000f28 0030
000f29 c000
000f2a 0003
000f2b 0300
          	.db	$04, $30, $40, $0E, $80, $07, $B4, $00
000f2c 3004
000f2d 0e40
000f2e 0780
000f2f 00b4
          	.db	$06, $C8, $03, $00, $00, $0F, $E8, $01
000f30 c806
000f31 0003
000f32 0f00
000f33 01e8
          	.db	$00, $80, $07, $04, $00, $00, $C0, $00
000f34 8000
000f35 0407
000f36 0000
000f37 00c0
          	.db	$60, $C8, $03, $06, $03, $82, $19, $02
000f38 c860
000f39 0603
000f3a 8203
000f3b 0219
          	.db	$00, $20, $00, $08, $01, $02, $00, $04
000f3c 2000
000f3d 0800
000f3e 0201
000f3f 0400
          	.db	$84, $80, $00, $00, $02, $04, $A0, $D0
000f40 8084
000f41 0000
000f42 0402
000f43 d0a0
          	.db	$04, $80, $14, $00, $00, $13, $08, $48
000f44 8004
000f45 0014
000f46 1300
000f47 4808
          	.db	$0E, $80, $16, $88, $04, $40, $00, $0B
000f48 800e
000f49 8816
000f4a 4004
000f4b 0b00
          	.db	$00, $00, $8C, $80, $09, $00, $00, $16
000f4c 0000
000f4d 808c
000f4e 0009
000f4f 1600
          	.db	$08, $02, $20, $01, $D9, $00, $00, $04
000f50 0208
000f51 0120
000f52 00d9
000f53 0400
          	.db	$80, $00, $D0, $03, $68, $06, $D0, $04
000f54 0080
000f55 03d0
000f56 0668
000f57 04d0
          	.db	$10, $90, $42, $0A, $04, $02, $05, $28
000f58 9010
000f59 0a42
000f5a 0204
000f5b 2805
          	.db	$20, $00, $C2, $42, $D8, $00, $0A, $61
000f5c 0020
000f5d 42c2
000f5e 00d8
000f5f 610a
          	.db	$20, $01, $DB, $00, $00, $04, $00, $00
000f60 0120
000f61 00db
000f62 0400
000f63 0000
          	.db	$C0, $03, $60, $20, $05, $80, $40, $12
000f64 03c0
000f65 2060
000f66 8005
000f67 1240
          	.db	$10, $03, $08, $00, $01, $00, $00, $02
000f68 0310
000f69 0008
000f6a 0001
000f6b 0200
          	.db	$C0, $03, $80, $CE, $00, $00, $0C, $00
000f6c 03c0
000f6d ce80
000f6e 0000
000f6f 000c
          	.db	$00, $F0, $03, $60, $10, $05, $40, $40
000f70 f000
000f71 6003
000f72 0510
000f73 4040
          	.db	$10, $C0, $00, $1E, $03, $0F, $80, $01
000f74 c010
000f75 1e00
000f76 0f03
000f77 0180
          	.db	$3C, $00, $00, $C4, $02, $01, $81, $FE
000f78 003c
000f79 c400
000f7a 0102
000f7b fe81
          	.db	$04, $02, $16, $D8, $03, $60, $01, $05
000f7c 0204
000f7d d816
000f7e 6003
000f7f 0501
          	.db	$80, $11, $C0, $44, $12, $08, $02, $08
000f80 1180
000f81 44c0
000f82 0812
000f83 0802
          	.db	$10, $85, $30, $00, $20, $C0, $14, $00
000f84 8510
000f85 0030
000f86 c020
000f87 0014
          	.db	$08, $23, $20, $85, $04, $04, $02, $01
000f88 2308
000f89 8520
000f8a 0404
000f8b 0102
          	.db	$00, $00, $60, $02, $05, $40, $08, $10
000f8c 0000
000f8d 0260
000f8e 4005
000f8f 1008
          	.db	$C0, $04, $88, $03, $44, $80, $84, $B0
000f90 04c0
000f91 0388
000f92 8044
000f93 b084
          	.db	$00, $20, $C0, $00, $40, $08, $93, $80
000f94 2000
000f95 00c0
000f96 0840
000f97 8093
          	.db	$87, $00, $00, $0C, $80, $06, $20, $03
000f98 0087
000f99 0c00
000f9a 0680
000f9b 0320
          	.db	$78, $10, $05, $B0, $40, $06, $30, $06
000f9c 1078
000f9d b005
000f9e 0640
000f9f 0630
          	.db	$18, $00, $B0, $20, $1E, $10, $02, $0F
000fa0 0018
000fa1 20b0
000fa2 101e
000fa3 0f02
          	.db	$E8, $01, $3C, $A0, $01, $F4, $20, $06
000fa4 01e8
000fa5 a03c
000fa6 f401
000fa7 0620
          	.db	$C0, $02, $80, $A0, $08, $02, $06, $04
000fa8 02c0
000fa9 a080
000faa 0208
000fab 0406
          	.db	$60, $10, $05, $40, $40, $11, $20, $08
000fac 1060
000fad 4005
000fae 1140
000faf 0820
          	.db	$03, $04, $84, $00, $00, $10, $00, $00
000fb0 0403
000fb1 0084
000fb2 1000
000fb3 0000
          	.db	$20, $00, $08, $83, $90, $E6, $02, $40
000fb4 0020
000fb5 8308
000fb6 e690
000fb7 4002
          	.db	$05, $20, $04, $05, $80, $02, $06, $20
000fb8 2005
000fb9 0504
000fba 0280
000fbb 2006
          	.db	$06, $10, $00, $00, $08, $58, $20, $02
000fbc 1006
000fbd 0000
000fbe 5808
000fbf 0220
          	.db	$8C, $80, $09, $05, $01, $10, $C8, $02
000fc0 808c
000fc1 0509
000fc2 1001
000fc3 02c8
          	.db	$02, $80, $BD, $00, $00, $04, $80, $00
000fc4 8002
000fc5 00bd
000fc6 0400
000fc7 0080
          	.db	$D0, $00, $00, $40, $08, $08, $02, $0D
000fc8 00d0
000fc9 4000
000fca 0808
000fcb 0d02
          	.db	$04, $50, $18, $0E, $80, $02, $11, $02
000fcc 5004
000fcd 0e18
000fce 0280
000fcf 0211
          	.db	$4A, $40, $13, $68, $00, $05, $A2, $01
000fd0 404a
000fd1 6813
000fd2 0500
000fd3 01a2
          	.db	$05, $80, $22, $01, $00, $0A, $61, $03
000fd4 8005
000fd5 0122
000fd6 0a00
000fd7 0361
          	.db	$40, $FD, $04, $C0, $03, $41, $40, $0C
000fd8 fd40
000fd9 c004
000fda 4103
000fdb 0c40
          	.db	$16, $04, $00, $40, $00, $04, $03, $61
000fdc 0416
000fdd 4000
000fde 0400
000fdf 6103
          	.db	$00, $08, $00, $01, $00, $00, $04, $03
000fe0 0800
000fe1 0100
000fe2 0000
000fe3 0304
          	.db	$03, $80, $DA, $00, $00, $30, $00, $00
000fe4 8003
000fe5 00da
000fe6 3000
000fe7 0000
          	.db	$F2, $02, $03, $20, $00, $0C, $05, $40
000fe8 02f2
000fe9 2003
000fea 0c00
000feb 4005
          	.db	$06, $48, $06, $24, $06, $C0, $02, $03
000fec 4806
000fed 2406
000fee c006
000fef 0302
          	.db	$00, $00, $0C, $80, $41, $0C, $80, $07
000ff0 0000
000ff1 800c
000ff2 0c41
000ff3 0780
          	.db	$00, $00, $08, $00, $03, $00, $BC, $00
000ff4 0000
000ff5 0008
000ff6 0003
000ff7 00bc
          	.db	$00, $30, $00, $26, $C0, $02, $11, $01
000ff8 3000
000ff9 2600
000ffa 02c0
000ffb 0111
          	.db	$81, $0C, $05, $02, $06, $08, $06, $04
000ffc 0c81
000ffd 0205
000ffe 0806
000fff 0406
          	.db	$44, $C2, $00, $81, $20, $43, $00, $00
001000 c244
001001 8100
001002 4320
001003 0000
          	.db	$48, $88, $11, $00, $00, $24, $04, $00
001004 8848
001005 0011
001006 2400
001007 0004
          	.db	$50, $20, $03, $B0, $A4, $00, $00, $30
001008 2050
001009 b003
00100a 00a4
00100b 3000
          	.db	$11, $00, $00, $08, $01, $00, $12, $00
00100c 0011
00100d 0800
00100e 0001
00100f 0012
          	.db	$40, $20, $10, $04, $08, $06, $40, $06
001010 2040
001011 0410
001012 0608
001013 0640
          	.db	$20, $22, $C0, $20, $40, $08, $09, $01
001014 2220
001015 20c0
001016 0840
001017 0109
          	.db	$44, $44, $80, $90, $B0, $00, $22, $02
001018 4444
001019 9080
00101a 00b0
00101b 0222
          	.db	$01, $20, $D0, $F0, $00, $00, $3C, $80
00101c 2001
00101d f0d0
00101e 0000
00101f 803c
          	.db	$06, $20, $00, $00, $C0, $03, $19, $00
001020 2006
001021 0000
001022 03c0
001023 0019
          	.db	$03, $04, $30, $40, $06, $40, $06, $A0
001024 0403
001025 4030
001026 4006
001027 a006
          	.db	$07, $74, $00, $06, $C0, $03, $18, $00
001028 7407
001029 0600
00102a 03c0
00102b 0018
          	.db	$0F, $E8, $01, $3C, $A0, $07, $04, $00
00102c e80f
00102d 3c01
00102e 07a0
00102f 0004
          	.db	$06, $C8, $00, $21, $86, $00, $00, $30
001030 c806
001031 2100
001032 0086
001033 3000
          	.db	$00, $06, $03, $82, $19, $02, $00, $80
001034 0600
001035 8203
001036 0219
001037 8000
          	.db	$00, $00, $03, $01, $00, $04, $84, $00
001038 0000
001039 0103
00103a 0400
00103b 0084
          	.db	$31, $00, $02, $03, $03, $20, $F3, $00
00103c 0031
00103d 0302
00103e 2003
00103f 00f3
          	.db	$00, $30, $10, $04, $0B, $00, $0A, $06
001040 3000
001041 0410
001042 000b
001043 060a
          	.db	$48, $06, $08, $07, $16, $88, $04, $00
001044 0648
001045 0708
001046 8816
001047 0004
          	.db	$09, $23, $00, $08, $8C, $80, $05, $30
001048 2309
001049 0800
00104a 808c
00104b 3005
          	.db	$00, $16, $08, $00, $00, $11, $53, $80
00104c 1600
00104d 0008
00104e 1100
00104f 8053
          	.db	$D7, $30, $00, $14, $84, $00, $D0, $00
001050 30d7
001051 1400
001052 0084
001053 00d0
          	.db	$00, $40, $00, $08, $22, $00, $A0, $01
001054 4000
001055 0800
001056 0022
001057 01a0
          	.db	$01, $00, $00, $10, $07, $20, $06, $14
001058 0001
001059 1000
00105a 2007
00105b 1406
          	.db	$00, $10, $00, $5A, $50, $00, $0C, $00
00105c 1000
00105d 5a00
00105e 0050
00105f 000c
          	.db	$05, $22, $20, $24, $90, $42, $08, $00
001060 2205
001061 2420
001062 4290
001063 0008
          	.db	$1A, $42, $13, $80, $9D, $04, $C0, $03
001064 421a
001065 8013
001066 049d
001067 03c0
          	.db	$20, $00, $00, $80, $01, $02, $80, $40
001068 0020
001069 8000
00106a 0201
00106b 4080
          	.db	$06, $80, $06, $40, $00, $80, $80, $18
00106c 8006
00106d 4006
00106e 8000
00106f 1880
          	.db	$00, $02, $60, $00, $08, $00, $01, $20
001070 0200
001071 0060
001072 0008
001073 2001
          	.db	$00, $02, $00, $00, $18, $00, $02, $81
001074 0200
001075 0000
001076 0018
001077 8102
          	.db	$A8, $04, $F0, $02, $03, $40, $00, $00
001078 04a8
001079 02f0
00107a 4003
00107b 0000
          	.db	$80, $81, $02, $C0, $13, $10, $00, $03
00107c 8180
00107d c002
00107e 1013
00107f 0300
          	.db	$00, $00, $0F, $06, $10, $00, $83, $00
001080 0000
001081 060f
001082 0010
001083 0083
          	.db	$D4, $0C, $00, $00, $41, $46, $D2, $02
001084 0cd4
001085 0000
001086 4641
001087 02d2
          	.db	$03, $00, $82, $00, $80, $09, $02, $80
001088 0003
001089 0082
00108a 0980
00108b 8002
          	.db	$42, $0C, $05, $20, $06, $05, $10, $02
00108c 0c42
00108d 2005
00108e 0506
00108f 0210
          	.db	$59, $20, $0A, $01, $22, $48, $08, $08
001090 2059
001091 010a
001092 4822
001093 0808
          	.db	$82, $20, $20, $08, $00, $98, $20, $0A
001094 2082
001095 0820
001096 9800
001097 0a20
          	.db	$00, $A2, $84, $85, $80, $10, $00, $00
001098 a200
001099 8584
00109a 1080
00109b 0000
          	.db	$10, $02, $22, $01, $00, $80, $84, $02
00109c 0210
00109d 0122
00109e 8000
00109f 0284
          	.db	$40, $40, $06, $08, $06, $04, $00, $00
0010a0 4040
0010a1 0806
0010a2 0406
0010a3 0000
          	.db	$04, $80, $00, $01, $01, $44, $44, $00
0010a4 8004
0010a5 0100
0010a6 4401
0010a7 0044
          	.db	$10, $00, $01, $20, $00, $00, $18, $09
0010a8 0010
0010a9 2001
0010aa 0000
0010ab 0918
          	.db	$21, $80, $DB, $E0, $01, $0C, $80, $06
0010ac 8021
0010ad e0db
0010ae 0c01
0010af 0680
          	.db	$20, $00, $00, $C0, $00, $18, $20, $00
0010b0 0020
0010b1 c000
0010b2 1800
0010b3 0020
          	.db	$E0, $01, $02, $F0, $00, $08, $06, $04
0010b4 01e0
0010b5 f002
0010b6 0800
0010b7 0406
          	.db	$07, $30, $80, $06, $C8, $03, $18, $00
0010b8 3007
0010b9 0680
0010ba 03c8
0010bb 0018
          	.db	$0F, $68, $80, $0C, $A0, $01, $04, $00
0010bc 680f
0010bd 0c80
0010be 01a0
0010bf 0004
          	.db	$1E, $C0, $83, $00, $F0, $8C, $01, $00
0010c0 c01e
0010c1 0083
0010c2 8cf0
0010c3 0001
          	.db	$00, $06, $05, $40, $00, $80, $81, $02
0010c4 0600
0010c5 4005
0010c6 8000
0010c7 0281
          	.db	$40, $15, $01, $00, $00, $04, $04, $00
0010c8 1540
0010c9 0001
0010ca 0400
0010cb 0004
          	.db	$01, $03, $18, $00, $03, $80, $E2, $80
0010cc 0301
0010cd 0018
0010ce 8003
0010cf 80e2
          	.db	$01, $00, $12, $04, $08, $44, $00, $00
0010d0 0001
0010d1 0412
0010d2 4408
0010d3 0000
          	.db	$80, $01, $02, $C0, $84, $11, $02, $05
0010d4 0180
0010d5 c002
0010d6 1184
0010d7 0502
          	.db	$11, $03, $01, $08, $8C, $00, $08, $80
0010d8 0311
0010d9 0801
0010da 008c
0010db 8008
          	.db	$40, $10, $08, $00, $18, $05, $53, $80
0010dc 1040
0010dd 0008
0010de 0518
0010df 8053
          	.db	$F4, $00, $00, $04, $80, $00, $D0, $00
0010e0 00f4
0010e1 0400
0010e2 0080
0010e3 00d0
          	.db	$00, $40, $11, $0A, $82, $05, $10, $48
0010e4 4000
0010e5 0a11
0010e6 0582
0010e7 4810
          	.db	$12, $06, $09, $05, $80, $00, $D0, $00
0010e8 0612
0010e9 0509
0010ea 0080
0010eb 00d0
          	.db	$1A, $60, $08, $68, $80, $05, $21, $88
0010ec 601a
0010ed 6808
0010ee 0580
0010ef 8821
          	.db	$00, $80, $12, $00, $00, $1A, $51, $08
0010f0 8000
0010f1 0012
0010f2 1a00
0010f3 0851
          	.db	$C0, $85, $04, $C0, $03, $20, $06, $80
0010f4 85c0
0010f5 c004
0010f6 2003
0010f7 8006
          	.db	$00, $02, $05, $90, $01, $05, $08, $00
0010f8 0200
0010f9 9005
0010fa 0501
0010fb 0008
          	.db	$C0, $00, $18, $00, $02, $62, $00, $04
0010fc 00c0
0010fd 0018
0010fe 6202
0010ff 0400
          	.db	$03, $04, $01, $00, $10, $00, $02, $01
001100 0403
001101 0001
001102 0010
001103 0102
          	.db	$8D, $00, $00, $30, $08, $00, $C0, $03
001104 008d
001105 3000
001106 0008
001107 03c0
          	.db	$41, $06, $C0, $00, $10, $06, $08, $05
001108 0641
001109 00c0
00110a 0610
00110b 0508
          	.db	$90, $01, $E0, $00, $18, $00, $03, $60
00110c 0190
00110d 00e0
00110e 0018
00110f 6003
          	.db	$00, $00, $80, $01, $00, $00, $06, $00
001110 0000
001111 0180
001112 0000
001113 0006
          	.db	$00, $08, $02, $DA, $02, $02, $46, $C8
001114 0800
001115 da02
001116 0202
001117 c846
          	.db	$02, $08, $00, $08, $05, $80, $42, $04
001118 0802
001119 0800
00111a 8005
00111b 0442
          	.db	$06, $08, $07, $D0, $00, $18, $09, $0A
00111c 0806
00111d d007
00111e 1800
00111f 0a09
          	.db	$61, $41, $20, $90, $10, $02, $00, $84
001120 4161
001121 9020
001122 0210
001123 8400
          	.db	$00, $00, $10, $05, $10, $34, $CE, $02
001124 0000
001125 0510
001126 3410
001127 02ce
          	.db	$0A, $00, $00, $02, $02, $22, $20, $05
001128 000a
001129 0200
00112a 2202
00112b 0520
          	.db	$40, $40, $10, $05, $18, $07, $26, $C0
00112c 4040
00112d 0510
00112e 0718
00112f c026
          	.db	$00, $08, $09, $01, $21, $00, $40, $00
001130 0800
001131 0109
001132 0021
001133 0040
          	.db	$41, $00, $00, $22, $00, $00, $08, $09
001134 0041
001135 2200
001136 0000
001137 0908
          	.db	$08, $11, $B6, $00, $00, $3C, $80, $06
001138 1108
001139 00b6
00113a 3c00
00113b 0680
          	.db	$30, $20, $00, $C0, $00, $18, $06, $F0
00113c 2030
00113d c000
00113e 1800
00113f f006
          	.db	$0F, $80, $07, $E2, $00, $1E, $C0, $03
001140 800f
001141 e207
001142 1e00
001143 03c0
          	.db	$78, $40, $03, $E8, $01, $00, $80, $07
001144 4078
001145 e803
001146 0001
001147 0780
          	.db	$04, $00, $16, $C0, $00, $60, $A5, $02
001148 0004
001149 c016
00114a 6000
00114b 02a5
          	.db	$10, $06, $0C, $40, $00, $0A, $06, $05
00114c 0610
00114d 400c
00114e 0a00
00114f 0506
          	.db	$06, $06, $C0, $00, $18, $08, $01, $62
001150 0606
001151 00c0
001152 0818
001153 6201
          	.db	$00, $00, $04, $01, $00, $00, $02, $00
001154 0000
001155 0104
001156 0000
001157 0002
          	.db	$00, $08, $08, $00, $A0, $9E, $00, $00
001158 0800
001159 0008
00115a 9ea0
00115b 0000
          	.db	$30, $02, $05, $41, $80, $05, $C0, $10
00115c 0230
00115d 4105
00115e 0580
00115f 10c0
          	.db	$20, $06, $10, $05, $08, $06, $C0, $00
001160 0620
001161 0510
001162 0608
001163 00c0
          	.db	$58, $00, $23, $60, $24, $80, $80, $05
001164 0058
001165 6023
001166 8024
001167 0580
          	.db	$02, $00, $16, $08, $00, $50, $00, $20
001168 0002
001169 0816
00116a 5000
00116b 2000
          	.db	$81, $9F, $00, $00, $04, $80, $00, $D0
00116c 9f81
00116d 0000
00116e 8004
00116f d000
          	.db	$00, $1A, $40, $03, $6A, $06, $10, $44
001170 1a00
001171 0340
001172 066a
001173 4410
          	.db	$06, $10, $06, $C0, $24, $18, $00, $02
001174 1006
001175 c006
001176 1824
001177 0200
          	.db	$41, $20, $69, $00, $05, $A8, $00, $00
001178 2041
001179 0069
00117a a805
00117b 0000
          	.db	$80, $22, $D1, $00, $8A, $40, $09, $02
00117c 2280
00117d 00d1
00117e 408a
00117f 0209
          	.db	$FE, $00, $00, $04, $00, $00, $C0, $00
001180 00fe
001181 0400
001182 0000
001183 00c0
          	.db	$18, $00, $02, $60, $08, $08, $05, $50
001184 0018
001185 6002
001186 0808
001187 5005
          	.db	$04, $05, $04, $04, $00, $00, $18, $04
001188 0504
001189 0404
00118a 0000
00118b 0418
          	.db	$02, $00, $00, $08, $00, $00, $01, $00
00118c 0002
00118d 0800
00118e 0000
00118f 0001
          	.db	$04, $C0, $00, $10, $04, $00, $80, $B2
001190 c004
001191 1000
001192 0004
001193 b280
          	.db	$00, $00, $0C, $00, $00, $F2, $00, $18
001194 0000
001195 000c
001196 f200
001197 1800
          	.db	$00, $01, $79, $06, $C0, $80, $02, $06
001198 0100
001199 0679
00119a 80c0
00119b 0602
          	.db	$01, $05, $10, $00, $04, $00, $18, $00
00119c 0501
00119d 0010
00119e 0004
00119f 0018
          	.db	$03, $00, $20, $0C, $03, $06, $F0, $00
0011a0 0003
0011a1 0c20
0011a2 0603
0011a3 00f0
          	.db	$00, $08, $00, $80, $9A, $04, $00, $04
0011a4 0800
0011a5 8000
0011a6 049a
0011a7 0400
          	.db	$00, $06, $C0, $00, $18, $00, $02, $68
0011a8 0600
0011a9 00c0
0011aa 0018
0011ab 6802
          	.db	$06, $40, $02, $0E, $08, $40, $00, $00
0011ac 4006
0011ad 0e02
0011ae 4008
0011af 0000
          	.db	$58, $08, $0A, $01, $01, $08, $10, $08
0011b0 0858
0011b1 010a
0011b2 0801
0011b3 0810
          	.db	$02, $00, $24, $D4, $00, $90, $00, $10
0011b4 0002
0011b5 d424
0011b6 9000
0011b7 1000
          	.db	$84, $87, $04, $04, $44, $58, $00, $21
0011b8 8784
0011b9 0404
0011ba 5844
0011bb 2100
          	.db	$00, $44, $05, $80, $0F, $10, $20, $C0
0011bc 4400
0011bd 8005
0011be 100f
0011bf c020
          	.db	$04, $88, $04, $01, $01, $44, $44, $00
0011c0 8804
0011c1 0104
0011c2 4401
0011c3 0044
          	.db	$00, $01, $00, $22, $C0, $00, $40, $08
0011c4 0100
0011c5 2200
0011c6 00c0
0011c7 0840
          	.db	$10, $80, $B3, $00, $00, $0C, $80, $06
0011c8 8010
0011c9 00b3
0011ca 0c00
0011cb 0680
          	.db	$20, $00, $1E, $C8, $02, $11, $06, $F0
0011cc 0020
0011cd c81e
0011ce 1102
0011cf f006
          	.db	$20, $0E, $80, $01, $F4, $20, $06, $C0
0011d0 0e20
0011d1 0180
0011d2 20f4
0011d3 c006
          	.db	$03, $18, $00, $0F, $68, $00, $00, $80
0011d4 1803
0011d5 0f00
0011d6 0068
0011d7 8000
          	.db	$07, $E4, $00, $06, $C0, $00, $01, $81
0011d8 e407
0011d9 0600
0011da 00c0
0011db 8101
          	.db	$08, $02, $06, $02, $08, $01, $01, $06
0011dc 0208
0011dd 0206
0011de 0108
0011df 0601
          	.db	$80, $11, $C0, $00, $08, $00, $01, $00
0011e0 1180
0011e1 00c0
0011e2 0008
0011e3 0001
          	.db	$00, $04, $04, $02, $02, $C0, $00, $00
0011e4 0400
0011e5 0204
0011e6 c002
0011e7 0000
          	.db	$08, $00, $81, $ED, $00, $00, $04, $0A
0011e8 0008
0011e9 ed81
0011ea 0000
0011eb 0a04
          	.db	$02, $40, $00, $0A, $07, $C0, $20, $0F
0011ec 4002
0011ed 0a00
0011ee c007
0011ef 0f20
          	.db	$10, $C8, $00, $10, $02, $03, $02, $08
0011f0 c810
0011f1 1000
0011f2 0302
0011f3 0802
          	.db	$8C, $00, $80, $00, $00, $16, $C8, $02
0011f4 008c
0011f5 0080
0011f6 1600
0011f7 02c8
          	.db	$08, $00, $E7, $00, $00, $34, $80, $00
0011f8 0008
0011f9 00e7
0011fa 3400
0011fb 0080
          	.db	$D0, $00, $00, $40, $11, $6C, $00, $41
0011fc 00d0
0011fd 4000
0011fe 6c11
0011ff 4100
          	.db	$02, $80, $00, $10, $44, $06, $40, $06
001200 8002
001201 1000
001202 0644
001203 0640
          	.db	$88, $02, $D2, $00, $12, $10, $00, $68
001204 0288
001205 00d2
001206 1012
001207 6800
          	.db	$00, $09, $A1, $01, $05, $80, $82, $00
001208 0900
001209 01a1
00120a 8005
00120b 0082
          	.db	$00, $02, $40, $13, $40, $AD, $00, $00
00120c 0200
00120d 1340
00120e ad40
00120f 0000
          	.db	$30, $00, $06, $C0, $03, $60, $00, $00
001210 0030
001211 c006
001212 6003
001213 0000
          	.db	$04, $15, $02, $00, $00, $10, $00, $00
001214 1504
001215 0002
001216 1000
001217 0000
          	.db	$60, $20, $08, $00, $01, $00, $00, $04
001218 2060
001219 0008
00121a 0001
00121b 0400
          	.db	$03, $02, $01, $AA, $00, $00, $30, $80
00121c 0203
00121d aa01
00121e 0000
00121f 8030
          	.db	$01, $C1, $03, $61, $00, $04, $08, $03
001220 c101
001221 6103
001222 0400
001223 0308
          	.db	$C0, $11, $02, $00, $00, $08, $00, $60
001224 11c0
001225 0002
001226 0800
001227 6000
          	.db	$00, $00, $80, $02, $06, $02, $00, $18
001228 0000
001229 0280
00122a 0206
00122b 1800
          	.db	$00, $03, $80, $C0, $08, $00, $30, $80
00122c 0300
00122d c080
00122e 0008
00122f 8030
          	.db	$26, $C0, $02, $08, $60, $00, $20, $04
001230 c026
001231 0802
001232 0060
001233 0420
          	.db	$40, $02, $01, $05, $40, $06, $20, $40
001234 0240
001235 0501
001236 0640
001237 4020
          	.db	$00, $84, $00, $01, $00, $60, $08, $80
001238 8400
001239 0100
00123a 6000
00123b 8008
          	.db	$04, $89, $00, $00, $44, $00, $00, $18
00123c 8904
00123d 0000
00123e 0044
00123f 1800
          	.db	$00, $93, $30, $F8, $02, $04, $06, $00
001240 9300
001241 f830
001242 0402
001243 0006
          	.db	$24, $00, $00, $20, $00, $14, $20, $04
001244 0024
001245 2000
001246 1400
001247 0420
          	.db	$02, $06, $88, $02, $08, $05, $40, $04
001248 0602
001249 0288
00124a 0508
00124b 0440
          	.db	$05, $20, $20, $00, $04, $80, $00, $00
00124c 2005
00124d 0020
00124e 8004
00124f 0000
          	.db	$40, $40, $40, $80, $10, $00, $20, $22
001250 4040
001251 8040
001252 0010
001253 2220
          	.db	$02, $09, $21, $50, $D5, $00, $00, $0C
001254 0902
001255 5021
001256 00d5
001257 0c00
          	.db	$00, $01, $30, $00, $00, $C0, $00, $19
001258 0100
001259 0030
00125a c000
00125b 1900
          	.db	$00, $03, $02, $80, $07, $F0, $20, $1C
00125c 0300
00125d 8002
00125e f007
00125f 1c20
          	.db	$05, $40, $0E, $05, $A0, $01, $34, $80
001260 4005
001261 050e
001262 01a0
001263 8034
          	.db	$06, $10, $00, $18, $00, $03, $68, $81
001264 1006
001265 1800
001266 0300
001267 8168
          	.db	$0C, $80, $07, $04, $00, $06, $C0, $03
001268 800c
001269 0407
00126a 0600
00126b 03c0
          	.db	$A1, $85, $04, $02, $06, $04, $02, $05
00126c 85a1
00126d 0204
00126e 0406
00126f 0502
          	.db	$06, $80, $00, $16, $05, $40, $0B, $05
001270 8006
001271 1600
001272 4005
001273 050b
          	.db	$20, $06, $40, $00, $84, $00, $30, $10
001274 0620
001275 0040
001276 0084
001277 1030
          	.db	$02, $03, $01, $20, $D3, $08, $10, $00
001278 0302
001279 2001
00127a 08d3
00127b 0010
          	.db	$00, $20, $10, $02, $06, $C0, $28, $10
00127c 2000
00127d 0210
00127e c006
00127f 1028
          	.db	$05, $20, $08, $05, $10, $10, $08, $02
001280 2005
001281 0508
001282 1010
001283 0208
          	.db	$41, $20, $02, $80, $00, $09, $32, $00
001284 2041
001285 8002
001286 0900
001287 0032
          	.db	$16, $08, $00, $00, $05, $83, $00, $98
001288 0816
001289 0000
00128a 8305
00128b 9800
          	.db	$10, $00, $00, $20, $0F, $10, $06, $08
00128c 0010
00128d 2000
00128e 100f
00128f 0806
          	.db	$15, $02, $01, $00, $00, $40, $94, $20
001290 0215
001291 0001
001292 4000
001293 2094
          	.db	$00, $00, $80, $00, $10, $00, $02, $40
001294 0000
001295 0080
001296 0010
001297 4002
          	.db	$00, $08, $00, $01, $20, $00, $04, $80
001298 0800
001299 0100
00129a 0020
00129b 8004
          	.db	$00, $10, $07, $08, $06, $04, $00, $10
00129c 1000
00129d 0807
00129e 0406
00129f 1000
          	.db	$00, $02, $40, $00, $08, $00, $01, $20
0012a0 0200
0012a1 0040
0012a2 0008
0012a3 2001
          	.db	$00, $00, $80, $00, $10, $00, $02, $40
0012a4 0000
0012a5 0080
0012a6 0010
0012a7 4002
          	.db	$00, $80, $F5, $24, $02, $10, $80, $D9
0012a8 8000
0012a9 24f5
0012aa 1002
0012ab d980
          	.db	$2C, $00, $84, $C0, $00, $10, $00, $02
0012ac 002c
0012ad c084
0012ae 1000
0012af 0200
          	.db	$40, $00, $08, $00, $01, $20, $00, $04
0012b0 0040
0012b1 0008
0012b2 2001
0012b3 0400
          	.db	$80, $00, $10, $0F, $80, $00, $10, $00
0012b4 0080
0012b5 0f10
0012b6 0080
0012b7 0010
          	.db	$02, $40, $00, $08, $00, $01, $20, $00
0012b8 4002
0012b9 0800
0012ba 0100
0012bb 0020
          	.db	$04, $A1, $02, $02, $40, $00, $B0, $81
0012bc a104
0012bd 0202
0012be 0040
0012bf 81b0
          	.db	$04, $04, $48, $03, $24, $1A, $01, $0A
0012c0 0404
0012c1 0348
0012c2 1a24
0012c3 0a01
          	.db	$08, $02, $90, $9D, $20, $00, $04, $00
0012c4 0208
0012c5 9d90
0012c6 0020
0012c7 0004
          	.db	$00, $04, $00, $02, $40, $02, $01, $20
0012c8 0400
0012c9 0200
0012ca 0240
0012cb 2001
          	.db	$00, $04, $80, $00, $10, $14, $40, $00
0012cc 0400
0012cd 0080
0012ce 1410
0012cf 0040
          	.db	$08, $00, $00, $20, $00, $08, $02, $80
0012d0 0008
0012d1 2000
0012d2 0800
0012d3 8002
          	.db	$02, $40, $00, $E0, $AD, $0C, $00, $00
0012d4 4002
0012d5 e000
0012d6 0cad
0012d7 0000
          	.db	$08, $28, $04, $03, $02, $03, $A0, $D9
0012d8 2808
0012d9 0304
0012da 0302
0012db d9a0
          	.db	$20, $00, $84, $80, $40, $14, $88, $02
0012dc 0020
0012dd 8084
0012de 1440
0012df 0288
          	.db	$40, $00, $08, $44, $01, $20, $00, $04
0012e0 0040
0012e1 4408
0012e2 2001
0012e3 0400
          	.db	$80, $00, $10, $0F, $80, $10, $12, $22
0012e4 0080
0012e5 0f10
0012e6 1080
0012e7 2212
          	.db	$82, $50, $00, $08, $00, $01, $20, $00
0012e8 5082
0012e9 0800
0012ea 0100
0012eb 0020
          	.db	$04, $80, $00, $10, $44, $02, $40, $00
0012ec 8004
0012ed 1000
0012ee 0244
0012ef 0040
          	.db	$80, $A7, $00, $00, $40, $00, $80, $0F
0012f0 a780
0012f1 0000
0012f2 0040
0012f3 0f80
          	.db	$08, $03, $08, $02, $04, $02, $04, $05
0012f4 0308
0012f5 0208
0012f6 0204
0012f7 0504
          	.db	$40, $03, $01, $06, $40, $80, $E1, $29
0012f8 0340
0012f9 0601
0012fa 8040
0012fb 29e1
          	.db	$60, $00, $08, $00, $00, $02, $00, $02
0012fc 0060
0012fd 0008
0012fe 0200
0012ff 0200
          	.db	$00, $01, $02, $80, $C4, $03, $04, $06
001300 0100
001301 8002
001302 03c4
001303 0604
          	.db	$08, $01, $20, $02, $00, $10, $05, $BA
001304 0108
001305 0220
001306 1000
001307 ba05
          	.db	$04, $08, $03, $80, $01, $0B, $20, $05
001308 0804
001309 8003
00130a 0b01
00130b 0520
          	.db	$04, $0A, $20, $00, $04, $09, $D4, $00
00130c 0a04
00130d 0020
00130e 0904
00130f 00d4
          	.db	$00, $80, $03, $01, $00, $01, $00, $00
001310 8000
001311 0103
001312 0100
001313 0000
          	.db	$04, $04, $40, $11, $40, $00, $00, $10
001314 0404
001315 1140
001316 0040
001317 1000
          	.db	$05, $01, $03, $08, $00, $00, $82, $CC
001318 0105
001319 0803
00131a 0000
00131b cc82
          	.db	$02, $03, $10, $03, $20, $00, $00, $40
00131c 0302
00131d 0310
00131e 0020
00131f 4000
          	.db	$03, $80, $40, $00, $00, $04, $02, $02
001320 8003
001321 0040
001322 0400
001323 0202
          	.db	$02, $02, $02, $02, $00, $00, $80, $02
001324 0202
001325 0202
001326 0000
001327 0280
          	.db	$02, $03, $01, $08, $00, $00, $04, $04
001328 0302
001329 0801
00132a 0000
00132b 0404
          	.db	$BF, $03, $02, $01, $20, $09, $04, $10
00132c 03bf
00132d 0102
00132e 0920
00132f 1004
          	.db	$80, $00, $11, $02, $01, $00, $40, $05
001330 0080
001331 0211
001332 0001
001333 0540
          	.db	$01, $00, $08, $00, $01, $80, $8A, $80
001334 0001
001335 0008
001336 8001
001337 808a
          	.db	$00, $08, $00, $02, $40, $00, $00, $08
001338 0800
001339 0200
00133a 0040
00133b 0800
          	.db	$00, $20, $10, $02, $00, $80, $15, $02
00133c 2000
00133d 0210
00133e 8000
00133f 0215
          	.db	$20, $00, $04, $00, $20, $00, $00, $02
001340 0020
001341 0004
001342 0020
001343 0200
          	.db	$00, $00, $08, $01, $40, $20, $02, $90
001344 0000
001345 0108
001346 2040
001347 9002
          	.db	$AA, $20, $00, $04, $80, $01, $12, $40
001348 20aa
001349 0400
00134a 0180
00134b 4012
          	.db	$00, $10, $00, $08, $40, $01, $00, $00
00134c 1000
00134d 0800
00134e 0140
00134f 0000
          	.db	$01, $00, $01, $11, $01, $26, $80, $00
001350 0001
001351 1101
001352 2601
001353 0080
          	.db	$90, $00, $08, $20, $00, $08, $28, $10
001354 0090
001355 2008
001356 0800
001357 1028
          	.db	$A0, $02, $12, $80, $0C, $83, $00, $80
001358 02a0
001359 8012
00135a 830c
00135b 8000
          	.db	$89, $00, $04, $00, $00, $82, $41, $20
00135c 0089
00135d 0004
00135e 8200
00135f 2041
          	.db	$22, $00, $00, $02, $0A, $08, $01, $15
001360 0022
001361 0200
001362 080a
001363 1501
          	.db	$E6, $00, $14, $30, $11, $6A, $A0, $0D
001364 00e6
001365 3014
001366 6a11
001367 0da0
          	.db	$19, $00, $81, $06, $52, $30, $80, $07
001368 0019
001369 0681
00136a 3052
00136b 0780
          	.db	$22, $04, $80, $00, $CE, $08, $02, $82
00136c 0422
00136d 0080
00136e 08ce
00136f 8202
          	.db	$40, $20, $1B, $80, $05, $20, $09, $10
001370 2040
001371 801b
001372 2005
001373 1009
          	.db	$80, $10, $98, $02, $03, $01, $04, $20
001374 1080
001375 0298
001376 0103
001377 2004
          	.db	$04, $02, $15, $02, $01, $40, $08, $80
001378 0204
001379 0215
00137a 4001
00137b 8008
          	.db	$80, $00, $10, $02, $40, $03, $40, $03
00137c 0080
00137d 0210
00137e 0340
00137f 0340
          	.db	$10, $A2, $04, $40, $04, $40, $00, $00
001380 a210
001381 4004
001382 4004
001383 0000
          	.db	$04, $0F, $20, $00, $00, $02, $03, $40
001384 0f04
001385 0020
001386 0200
001387 4003
          	.db	$48, $00, $09, $00, $00, $40, $00, $80
001388 0048
001389 0009
00138a 4000
00138b 8000
          	.db	$07, $AA, $10, $03, $22, $03, $10, $16
00138c aa07
00138d 0310
00138e 0322
00138f 1610
          	.db	$01, $00, $01, $08, $00, $08, $08, $02
001390 0001
001391 0801
001392 0800
001393 0208
          	.db	$02, $00, $02, $00, $00, $01, $10, $00
001394 0002
001395 0002
001396 0100
001397 0010
          	.db	$00, $40, $00, $40, $EC, $09, $10, $01
001398 4000
001399 4000
00139a 09ec
00139b 0110
          	.db	$1B, $02, $00, $00, $40, $00, $00, $20
00139c 021b
00139d 0000
00139e 0040
00139f 2000
          	.db	$00, $80, $04, $04, $80, $E3, $06, $10
0013a0 8000
0013a1 0404
0013a2 e380
0013a3 1006
          	.db	$00, $04, $0D, $40, $0A, $06, $0E, $04
0013a4 0400
0013a5 400d
0013a6 060a
0013a7 040e
          	.db	$00, $00, $80, $8E, $10, $00, $20, $05
0013a8 0000
0013a9 8e80
0013aa 0010
0013ab 0520
          	.db	$08, $00, $80, $05, $80, $00, $00, $10
0013ac 0008
0013ad 0580
0013ae 0080
0013af 1000
          	.db	$00, $00, $40, $03, $08, $00, $00, $20
0013b0 0000
0013b1 0340
0013b2 0008
0013b3 2000
          	.db	$05, $12, $00, $04, $00, $01, $00, $00
0013b4 1205
0013b5 0400
0013b6 0100
0013b7 0000
          	.db	$04, $06, $02, $C0, $E4, $05, $10, $00
0013b8 0604
0013b9 c002
0013ba 05e4
0013bb 0010
          	.db	$00, $40, $04, $80, $1C, $45, $00, $01
0013bc 4000
0013bd 8004
0013be 451c
0013bf 0100
          	.db	$00, $20, $80, $06, $02, $80, $C1, $04
0013c0 2000
0013c1 0680
0013c2 8002
0013c3 04c1
          	.db	$08, $00, $00, $40, $03, $40, $15, $01
0013c4 0008
0013c5 4000
0013c6 4003
0013c7 0115
          	.db	$09, $08, $06, $80, $EC, $2B, $01, $09
0013c8 0809
0013c9 8006
0013ca 2bec
0013cb 0901
          	.db	$90, $E9, $00, $00, $10, $05, $06, $08
0013cc e990
0013cd 0000
0013ce 0510
0013cf 0806
          	.db	$01, $12, $08, $05, $02, $04, $20, $00
0013d0 1201
0013d1 0508
0013d2 0402
0013d3 0020
          	.db	$01, $00, $8C, $08, $02, $07, $40, $00
0013d4 0001
0013d5 088c
0013d6 0702
0013d7 0040
          	.db	$00, $80, $02, $80, $02, $40, $02, $40
0013d8 8000
0013d9 8002
0013da 4002
0013db 4002
          	.db	$04, $10, $04, $80, $07, $01, $40, $CF
0013dc 1004
0013dd 8004
0013de 0107
0013df cf40
          	.db	$03, $02, $41, $00, $04, $09, $40, $04
0013e0 0203
0013e1 0041
0013e2 0904
0013e3 0440
          	.db	$20, $00, $00, $01, $02, $10, $08, $00
0013e4 0020
0013e5 0100
0013e6 1002
0013e7 0008
          	.db	$00, $80, $00, $11, $00, $08, $00, $00
0013e8 8000
0013e9 1100
0013ea 0800
0013eb 0000
          	.db	$20, $04, $20, $00, $42, $00, $00, $08
0013ec 0420
0013ed 0020
0013ee 0042
0013ef 0800
          	.db	$01, $82, $A4, $80, $00, $01, $00, $01
0013f0 8201
0013f1 80a4
0013f2 0100
0013f3 0100
          	.db	$10, $20, $04, $48, $00, $20, $02, $40
0013f4 2010
0013f5 4804
0013f6 2000
0013f7 4002
          	.db	$08, $06, $10, $06, $08, $00, $80, $02
0013f8 0608
0013f9 0610
0013fa 0008
0013fb 0280
          	.db	$40, $80, $05, $02, $40, $03, $80, $08
0013fc 8040
0013fd 0205
0013fe 0340
0013ff 0880
          	.db	$00, $00, $90, $B3, $A0, $28, $01, $80
001400 0000
001401 b390
001402 28a0
001403 8001
          	.db	$01, $32, $80, $0E, $54, $00, $08, $03
001404 3201
001405 0e80
001406 0054
001407 0308
          	.db	$05, $00, $02, $21, $03, $20, $08, $00
001408 0005
001409 2102
00140a 2003
00140b 0008
          	.db	$40, $03, $30, $04, $80, $00, $00, $01
00140c 0340
00140d 0430
00140e 0080
00140f 0100
          	.db	$32, $98, $04, $04, $01, $10, $10, $00
001410 9832
001411 0404
001412 1001
001413 0010
          	.db	$08, $00, $01, $10, $00, $22, $80, $02
001414 0008
001415 1001
001416 2200
001417 0280
          	.db	$88, $00, $01, $C8, $00, $37, $00, $00
001418 0088
001419 c801
00141a 3700
00141b 0000
          	.db	$04, $81, $10, $90, $00, $00, $40, $00
00141c 8104
00141d 9010
00141e 0000
00141f 0040
          	.db	$08, $80, $00, $00, $80, $38, $00, $52
001420 8008
001421 0000
001422 3880
001423 5200
          	.db	$01, $02, $18, $00, $83, $05, $80, $41
001424 0201
001425 0018
001426 0583
001427 4180
          	.db	$00, $20, $4A, $18, $80, $29, $00, $08
001428 2000
001429 184a
00142a 2980
00142b 0800
          	.db	$01, $98, $02, $88, $02, $00, $84, $80
00142c 9801
00142d 8802
00142e 0002
00142f 8084
          	.db	$38, $30, $04, $0E, $10, $DA, $10, $03
001430 3038
001431 0e04
001432 da10
001433 0310
          	.db	$01, $06, $40, $09, $10, $00, $01, $01
001434 0601
001435 0940
001436 0010
001437 0101
          	.db	$04, $40, $80, $00, $00, $10, $06, $02
001438 4004
001439 0080
00143a 1000
00143b 0206
          	.db	$04, $20, $00, $04, $00, $40, $D9, $80
00143c 2004
00143d 0400
00143e 4000
00143f 80d9
          	.db	$40, $00, $00, $02, $40, $20, $04, $00
001440 0040
001441 0200
001442 2040
001443 0004
          	.db	$00, $20, $00, $04, $05, $10, $03, $10
001444 2000
001445 0400
001446 1005
001447 1003
          	.db	$00, $01, $05, $80, $03, $20, $04, $04
001448 0100
001449 8005
00144a 2003
00144b 0404
          	.db	$03, $02, $21, $10, $08, $00, $01, $00
00144c 0203
00144d 1021
00144e 0008
00144f 0001
          	.db	$D5, $80, $00, $00, $60, $02, $08, $0C
001450 80d5
001451 0000
001452 0260
001453 0c08
          	.db	$80, $02, $80, $02, $40, $02, $40, $06
001454 0280
001455 0280
001456 0240
001457 0640
          	.db	$01, $20, $08, $01, $10, $00, $80, $B0
001458 2001
001459 0108
00145a 0010
00145b b080
          	.db	$10, $00, $04, $20, $05, $08, $09, $04
00145c 0010
00145d 2004
00145e 0805
00145f 0409
          	.db	$00, $00, $11, $03, $02, $00, $00, $08
001460 0000
001461 0311
001462 0002
001463 0800
          	.db	$05, $04, $80, $0A, $02, $00, $00, $C0
001464 0405
001465 0a80
001466 0002
001467 c000
          	.db	$88, $0C, $80, $1A, $02, $02, $10, $03
001468 0c88
001469 1a80
00146a 0202
00146b 0310
          	.db	$04, $00, $04, $02, $BE, $04, $C0, $80
00146c 0004
00146d 0204
00146e 04be
00146f 80c0
          	.db	$02, $40, $40, $16, $02, $0B, $20, $06
001470 4002
001471 1640
001472 0b02
001473 0620
          	.db	$BD, $08, $03, $02, $0B, $20, $00, $01
001474 08bd
001475 0203
001476 200b
001477 0100
          	.db	$0E, $04, $20, $02, $00, $80, $00, $40
001478 040e
001479 0220
00147a 8000
00147b 4000
          	.db	$00, $00, $80, $08, $80, $90, $11, $20
00147c 0000
00147d 0880
00147e 9080
00147f 2011
          	.db	$05, $40, $0F, $80, $00, $00, $08, $00
001480 4005
001481 800f
001482 0000
001483 0008
          	.db	$00, $08, $05, $80, $B7, $03, $01, $04
001484 0800
001485 8005
001486 03b7
001487 0401
          	.db	$04, $06, $04, $10, $10, $09, $20, $01
001488 0604
001489 1004
00148a 0910
00148b 0120
          	.db	$24, $03, $02, $00, $00, $48, $00, $09
00148c 0324
00148d 0002
00148e 4800
00148f 0900
          	.db	$40, $00, $24, $00, $80, $B8, $00, $00
001490 0040
001491 0024
001492 b880
001493 0000
          	.db	$10, $22, $C0, $04, $04, $02, $10, $03
001494 2210
001495 04c0
001496 0204
001497 0310
          	.db	$80, $00, $80, $AC, $04, $01, $20, $03
001498 0080
001499 ac80
00149a 0104
00149b 0320
          	.db	$10, $00, $10, $0A, $40, $0B, $80, $20
00149c 0010
00149d 0a10
00149e 0b40
00149f 2080
          	.db	$03, $08, $0A, $BD, $02, $02, $01, $1E
0014a0 0803
0014a1 bd0a
0014a2 0202
0014a3 1e01
          	.db	$80, $00, $01, $03, $10, $00, $40, $05
0014a4 0080
0014a5 0301
0014a6 0010
0014a7 0540
          	.db	$40, $10, $00, $80, $83, $09, $08, $06
0014a8 1040
0014a9 8000
0014aa 0983
0014ab 0608
          	.db	$10, $00, $00, $04, $00, $00, $10, $03
0014ac 0010
0014ad 0400
0014ae 0000
0014af 0310
          	.db	$02, $00, $00, $08, $08, $02, $00, $20
0014b0 0002
0014b1 0800
0014b2 0208
0014b3 2000
          	.db	$09, $C8, $F1, $07, $80, $09, $01, $14
0014b4 c809
0014b5 07f1
0014b6 0980
0014b7 1401
          	.db	$80, $05, $84, $00, $02, $02, $80, $80
0014b8 0580
0014b9 0084
0014ba 0202
0014bb 8080
          	.db	$AF, $80, $88, $14, $89, $42, $00, $00
0014bc 80af
0014bd 1488
0014be 4289
0014bf 0000
          	.db	$98, $08, $10, $09, $01, $40, $A0, $84
0014c0 0898
0014c1 0910
0014c2 4001
0014c3 84a0
          	.db	$04, $00, $00, $04, $0F, $80, $00, $50
0014c4 0004
0014c5 0400
0014c6 800f
0014c7 5000
          	.db	$82, $98, $40, $02, $8C, $28, $05, $02
0014c8 9882
0014c9 0240
0014ca 288c
0014cb 0205
          	.db	$00, $46, $D4, $00, $13, $41, $0A, $01
0014cc 4600
0014cd 00d4
0014ce 4113
0014cf 010a
          	.db	$D7, $80, $02, $04, $02, $04, $40, $00
0014d0 80d7
0014d1 0402
0014d2 0402
0014d3 0040
          	.db	$02, $18, $18, $08, $02, $0C, $00, $01
0014d4 1802
0014d5 0818
0014d6 0c02
0014d7 0100
          	.db	$00, $00, $06, $C0, $00, $18, $10, $03
0014d8 0000
0014d9 c006
0014da 1800
0014db 0310
          	.db	$80, $D4, $E0, $01, $00, $08, $02, $00
0014dc d480
0014dd 01e0
0014de 0800
0014df 0002
          	.db	$00, $1E, $90, $03, $20, $10, $03, $80
0014e0 1e00
0014e1 0390
0014e2 1020
0014e3 8003
          	.db	$01, $01, $80, $01, $10, $80, $01, $40
0014e4 0101
0014e5 0180
0014e6 8010
0014e7 4001
          	.db	$00, $04, $00, $83, $00, $00, $03, $80
0014e8 0400
0014e9 8300
0014ea 0000
0014eb 8003
          	.db	$40, $00, $80, $01, $C0, $40, $10, $10
0014ec 0040
0014ed 0180
0014ee 40c0
0014ef 1010
          	.db	$02, $81, $BF, $00, $90, $00, $01, $44
0014f0 8102
0014f1 00bf
0014f2 0090
0014f3 4401
          	.db	$02, $00, $00, $40, $90, $00, $04, $00
0014f4 0002
0014f5 4000
0014f6 0090
0014f7 0004
          	.db	$80, $11, $00, $08, $11, $80, $00, $C0
0014f8 1180
0014f9 0800
0014fa 8011
0014fb c000
          	.db	$44, $02, $00, $03, $02, $80, $03, $C0
0014fc 0244
0014fd 0300
0014fe 8002
0014ff c003
          	.db	$02, $98, $00, $23, $80, $C8, $40, $01
001500 9802
001501 2300
001502 c880
001503 0140
          	.db	$80, $10, $42, $00, $00, $40, $04, $23
001504 1080
001505 0042
001506 4000
001507 2304
          	.db	$00, $24, $8C, $00, $30, $00, $04, $46
001508 2400
001509 008c
00150a 0030
00150b 4604
          	.db	$04, $10, $16, $C0, $08, $40, $00, $60
00150c 1004
00150d c016
00150e 4008
00150f 6000
          	.db	$00, $00, $40, $10, $11, $02, $44, $08
001510 0000
001511 1040
001512 0211
001513 0844
          	.db	$99, $00, $23, $82, $B8, $20, $01, $0C
001514 0099
001515 8223
001516 20b8
001517 0c01
          	.db	$80, $03, $01, $00, $1E, $C0, $83, $18
001518 0380
001519 0001
00151a c01e
00151b 1883
          	.db	$00, $0F, $64, $01, $0C, $80, $07, $10
00151c 0f00
00151d 0164
00151e 800c
00151f 1007
          	.db	$80, $07, $B1, $20, $06, $C8, $03, $00
001520 0780
001521 20b1
001522 c806
001523 0003
          	.db	$00, $03, $60, $41, $00, $80, $01, $B0
001524 0300
001525 4160
001526 8000
001527 b001
          	.db	$00, $0E, $D0, $01, $00, $DB, $40, $01
001528 0e00
001529 01d0
00152a db00
00152b 0140
          	.db	$02, $01, $00, $18, $00, $03, $02, $00
00152c 0102
00152d 1800
00152e 0300
00152f 0002
          	.db	$0C, $00, $40, $00, $00, $06, $11, $06
001530 000c
001531 0040
001532 0600
001533 0611
          	.db	$00, $00, $18, $00, $80, $00, $00, $0C
001534 0000
001535 0018
001536 0080
001537 0c00
          	.db	$88, $02, $06, $02, $80, $03, $E5, $80
001538 0288
001539 0206
00153a 0380
00153b 80e5
          	.db	$00, $00, $04, $02, $40, $60, $03, $00
00153c 0000
00153d 0204
00153e 6040
00153f 0003
          	.db	$08, $0C, $00, $09, $B0, $40, $06, $11
001540 0c08
001541 0900
001542 40b0
001543 1106
          	.db	$06, $80, $04, $99, $20, $0B, $00, $00
001544 8006
001545 9904
001546 0b20
001547 0000
          	.db	$8C, $80, $50, $00, $00, $16, $80, $04
001548 808c
001549 0050
00154a 1600
00154b 0480
          	.db	$44, $A0, $08, $04, $F5, $10, $88, $04
00154c a044
00154d 0408
00154e 10f5
00154f 0488
          	.db	$80, $00, $C0, $44, $98, $48, $21, $02
001550 0080
001551 44c0
001552 4898
001553 0221
          	.db	$00, $01, $22, $85, $84, $0A, $08, $06
001554 0100
001555 8522
001556 0a84
001557 0608
          	.db	$04, $00, $94, $04, $02, $00, $20, $00
001558 0004
001559 0494
00155a 0002
00155b 0020
          	.db	$00, $8C, $24, $80, $00, $00, $46, $02
00155c 8c00
00155d 8024
00155e 0000
00155f 0246
          	.db	$00, $0A, $43, $61, $00, $8F, $0C, $80
001560 0a00
001561 6143
001562 8f00
001563 800c
          	.db	$01, $00, $08, $09, $30, $06, $18, $00
001564 0001
001565 0908
001566 0630
001567 0018
          	.db	$80, $20, $02, $02, $00, $0C, $03, $06
001568 2080
001569 0202
00156a 0c00
00156b 0603
          	.db	$00, $00, $18, $00, $03, $80, $AF, $60
00156c 0000
00156d 0018
00156e 8003
00156f 60af
          	.db	$01, $00, $00, $06, $F0, $40, $1E, $04
001570 0001
001571 0600
001572 40f0
001573 041e
          	.db	$04, $01, $00, $08, $09, $20, $06, $90
001574 0104
001575 0800
001576 2009
001577 9006
          	.db	$01, $40, $00, $18, $84, $03, $00, $00
001578 4001
001579 1800
00157a 0384
00157b 0000
          	.db	$02, $80, $02, $01, $00, $00, $08, $08
00157c 8002
00157d 0102
00157e 0000
00157f 0808
          	.db	$01, $01, $91, $8C, $90, $00, $00, $06
001580 0101
001581 8c91
001582 0090
001583 0600
          	.db	$00, $04, $40, $00, $00, $01, $00, $40
001584 0400
001585 0040
001586 0100
001587 4000
          	.db	$81, $91, $00, $01, $13, $40, $22, $18
001588 9181
001589 0100
00158a 4013
00158b 1822
          	.db	$41, $03, $00, $00, $01, $00, $85, $00
00158c 0341
00158d 0000
00158e 0001
00158f 0085
          	.db	$80, $02, $58, $00, $13, $20, $ED, $54
001590 0280
001591 0058
001592 2013
001593 54ed
          	.db	$01, $80, $10, $26, $00, $18, $00, $00
001594 8001
001595 2610
001596 1800
001597 0000
          	.db	$08, $00, $00, $20, $80, $01, $02, $01
001598 0008
001599 2000
00159a 0180
00159b 0102
          	.db	$12, $86, $80, $80, $00, $03, $03, $01
00159c 8612
00159d 8080
00159e 0300
00159f 0103
          	.db	$00, $40, $10, $30, $02, $08, $00, $98
0015a0 4000
0015a1 3010
0015a2 0802
0015a3 9800
          	.db	$00, $23, $81, $D5, $28, $01, $0C, $80
0015a4 2300
0015a5 d581
0015a6 0128
0015a7 800c
          	.db	$07, $F1, $00, $06, $D0, $00, $01, $00
0015a8 f107
0015a9 0600
0015aa 00d0
0015ab 0001
          	.db	$03, $E2, $00, $0C, $08, $11, $80, $07
0015ac e203
0015ad 0c00
0015ae 1108
0015af 0780
          	.db	$B0, $00, $1E, $C0, $03, $00, $00, $03
0015b0 00b0
0015b1 c01e
0015b2 0003
0015b3 0300
          	.db	$60, $01, $00, $80, $01, $00, $00, $16
0015b4 0160
0015b5 8000
0015b6 0001
0015b7 1600
          	.db	$C8, $02, $00, $85, $48, $01, $30, $00
0015b8 02c8
0015b9 8500
0015ba 0148
0015bb 0030
          	.db	$06, $C1, $00, $18, $07, $08, $12, $06
0015bc c106
0015bd 1800
0015be 0807
0015bf 0612
          	.db	$40, $03, $02, $00, $0C, $08, $02, $06
0015c0 0340
0015c1 0002
0015c2 080c
0015c3 0602
          	.db	$02, $03, $10, $9A, $80, $00, $30, $04
0015c4 0302
0015c5 9a10
0015c6 0080
0015c7 0430
          	.db	$46, $00, $02, $19, $82, $10, $02, $00
0015c8 0046
0015c9 1902
0015ca 1082
0015cb 0002
          	.db	$88, $48, $04, $A2, $12, $80, $06, $40
0015cc 4888
0015cd a204
0015ce 8012
0015cf 4006
          	.db	$42, $18, $05, $10, $00, $00, $8C, $00
0015d0 1842
0015d1 1005
0015d2 0000
0015d3 008c
          	.db	$45, $00, $00, $16, $02, $20, $00, $04
0015d4 0045
0015d5 1600
0015d6 2002
0015d7 0400
          	.db	$E1, $10, $88, $14, $8A, $20, $C2, $44
0015d8 10e1
0015d9 1488
0015da 208a
0015db 44c2
          	.db	$1A, $40, $00, $01, $00, $0D, $A0, $30
0015dc 401a
0015dd 0100
0015de 0d00
0015df 30a0
          	.db	$00, $A2, $40, $10, $80, $00, $10, $48
0015e0 a200
0015e1 1040
0015e2 0080
0015e3 4810
          	.db	$18, $11, $20, $00, $00, $2C, $80, $09
0015e4 1118
0015e5 0020
0015e6 2c00
0015e7 0980
          	.db	$00, $00, $46, $D8, $42, $12, $41, $03
0015e8 0000
0015e9 d846
0015ea 1242
0015eb 0341
          	.db	$C0, $92, $03, $04, $00, $00, $18, $03
0015ec 92c0
0015ed 0403
0015ee 0000
0015ef 0318
          	.db	$0C, $80, $01, $02, $02, $13, $18, $00
0015f0 800c
0015f1 0201
0015f2 1302
0015f3 0018
          	.db	$00, $02, $00, $0C, $88, $81, $00, $00
0015f4 0200
0015f5 0c00
0015f6 8188
0015f7 0000
          	.db	$06, $C0, $00, $18, $10, $03, $80, $E2
0015f8 c006
0015f9 1800
0015fa 0310
0015fb e280
          	.db	$60, $01, $10, $00, $00, $F1, $00, $18
0015fc 0160
0015fd 0010
0015fe f100
0015ff 1800
          	.db	$00, $01, $02, $80, $40, $0C, $00, $06
001600 0100
001601 8002
001602 0c40
001603 0600
          	.db	$04, $0F, $80, $01, $40, $00, $04, $C0
001604 0f04
001605 0180
001606 0040
001607 c004
          	.db	$03, $00, $00, $03, $40, $02, $01, $C0
001608 0003
001609 0300
00160a 0240
00160b c001
          	.db	$80, $10, $C8, $03, $80, $A3, $8C, $90
00160c 1080
00160d 03c8
00160e a380
00160f 908c
          	.db	$80, $20, $20, $10, $10, $18, $00, $00
001610 2080
001611 1020
001612 1810
001613 0000
          	.db	$04, $00, $00, $80, $01, $04, $00, $16
001614 0004
001615 8000
001616 0401
001617 1600
          	.db	$10, $80, $00, $80, $84, $02, $00, $03
001618 8010
001619 8000
00161a 0284
00161b 0300
          	.db	$02, $20, $00, $00, $80, $00, $C0, $04
00161c 2002
00161d 0000
00161e 0080
00161f 04c0
          	.db	$18, $00, $03, $B0, $AD, $44, $01, $00
001620 0018
001621 b003
001622 44ad
001623 0001
          	.db	$40, $80, $00, $00, $98, $08, $10, $00
001624 8040
001625 0000
001626 0898
001627 0010
          	.db	$00, $40, $90, $01, $30, $01, $00, $08
001628 4000
001629 0190
00162a 0130
00162b 0800
          	.db	$10, $16, $01, $02, $40, $00, $13, $00
00162c 1610
00162d 0201
00162e 0040
00162f 0013
          	.db	$00, $40, $10, $00, $02, $00, $00, $C8
001630 4000
001631 0010
001632 0002
001633 c800
          	.db	$08, $99, $08, $00, $50, $8F, $38, $01
001634 9908
001635 0008
001636 8f50
001637 0138
          	.db	$2C, $80, $01, $30, $40, $1E, $C0, $00
001638 802c
001639 3001
00163a 1e40
00163b 00c0
          	.db	$02, $00, $03, $60, $81, $3C, $90, $05
00163c 0002
00163d 6003
00163e 3c81
00163f 0590
          	.db	$08, $80, $06, $A0, $07, $B0, $80, $06
001640 8008
001641 a006
001642 b007
001643 0680
          	.db	$C8, $03, $01, $00, $03, $60, $00, $00
001644 03c8
001645 0001
001646 6003
001647 0000
          	.db	$80, $01, $F0, $00, $0E, $C0, $80, $A0
001648 0180
001649 00f0
00164a c00e
00164b a080
          	.db	$CF, $48, $01, $10, $00, $00, $C1, $06
00164c 48cf
00164d 1001
00164e 0000
00164f 06c1
          	.db	$04, $00, $31, $00, $00, $01, $07, $08
001650 0004
001651 0031
001652 0100
001653 0807
          	.db	$06, $04, $06, $00, $00, $18, $00, $00
001654 0406
001655 0006
001656 1800
001657 0000
          	.db	$02, $00, $0C, $88, $81, $00, $00, $06
001658 0002
001659 880c
00165a 0081
00165b 0600
          	.db	$C2, $03, $20, $AA, $80, $00, $20, $22
00165c 03c2
00165d aa20
00165e 0080
00165f 2220
          	.db	$00, $C0, $88, $80, $10, $20, $04, $02
001660 c000
001661 8088
001662 2010
001663 0204
          	.db	$04, $30, $00, $04, $10, $10, $06, $80
001664 3004
001665 0400
001666 1010
001667 8006
          	.db	$80, $98, $20, $10, $00, $00, $8C, $80
001668 9880
001669 1020
00166a 0000
00166b 808c
          	.db	$05, $00, $00, $16, $80, $04, $45, $20
00166c 0005
00166d 1600
00166e 0480
00166f 2045
          	.db	$00, $80, $F0, $00, $88, $34, $80, $42
001670 8000
001671 00f0
001672 3488
001673 4280
          	.db	$C2, $44, $98, $48, $03, $00, $00, $41
001674 44c2
001675 4898
001676 0003
001677 4100
          	.db	$20, $85, $00, $22, $00, $04, $07, $48
001678 8520
001679 2200
00167a 0400
00167b 4807
          	.db	$06, $80, $00, $90, $20, $00, $09, $20
00167c 8006
00167d 9000
00167e 0020
00167f 2009
          	.db	$02, $00, $8C, $30, $10, $00, $00, $26
001680 0002
001681 308c
001682 0010
001683 2600
          	.db	$10, $00, $0A, $03, $00, $80, $F5, $08
001684 0010
001685 030a
001686 8000
001687 08f5
          	.db	$03, $02, $88, $01, $0B, $30, $06, $48
001688 0203
001689 0188
00168a 300b
00168b 4806
          	.db	$00, $80, $05, $0C, $00, $00, $01, $00
00168c 8000
00168d 0c05
00168e 0000
00168f 0001
          	.db	$06, $02, $00, $18, $00, $00, $80, $FE
001690 0206
001691 1800
001692 0000
001693 fe80
          	.db	$60, $01, $00, $08, $02, $F0, $00, $1E
001694 0160
001695 0800
001696 f002
001697 1e00
          	.db	$04, $03, $00, $00, $04, $08, $01, $0C
001698 0304
001699 0000
00169a 0804
00169b 0c01
          	.db	$80, $01, $10, $80, $01, $40, $20, $1C
00169c 0180
00169d 8010
00169e 4001
00169f 1c20
          	.db	$80, $03, $00, $00, $02, $80, $40, $00
0016a0 0380
0016a1 0000
0016a2 8002
0016a3 0040
          	.db	$80, $01, $C0, $00, $08, $04, $00, $00
0016a4 0180
0016a5 00c0
0016a6 0408
0016a7 0000
          	.db	$D8, $80, $90, $00, $01, $10, $01, $82
0016a8 80d8
0016a9 0090
0016aa 1001
0016ab 8201
          	.db	$02, $00, $03, $00, $00, $80, $80, $01
0016ac 0002
0016ad 0003
0016ae 8000
0016af 0180
          	.db	$06, $12, $80, $00, $40, $00, $1A, $40
0016b0 1206
0016b1 0080
0016b2 0040
0016b3 401a
          	.db	$03, $00, $00, $01, $00, $05, $03, $10
0016b4 0003
0016b5 0100
0016b6 0500
0016b7 1003
          	.db	$98, $00, $00, $A0, $F4, $40, $01, $80
0016b8 0098
0016b9 a000
0016ba 40f4
0016bb 8001
          	.db	$10, $10, $00, $24, $00, $00, $20, $02
0016bc 1010
0016bd 2400
0016be 0000
0016bf 0220
          	.db	$00, $00, $90, $01, $31, $10, $26, $08
0016c0 0000
0016c1 0190
0016c2 1031
0016c3 0826
          	.db	$10, $06, $08, $06, $81, $18, $58, $00
0016c4 0610
0016c5 0608
0016c6 1881
0016c7 0058
          	.db	$03, $01, $00, $40, $10, $30, $02, $04
0016c8 0103
0016c9 4000
0016ca 3010
0016cb 0402
          	.db	$00, $58, $02, $FF, $20, $01, $0C, $80
0016cc 5800
0016cd ff02
0016ce 0120
0016cf 800c
          	.db	$01, $F4, $00, $06, $D0, $02, $03, $E0
0016d0 f401
0016d1 0600
0016d2 02d0
0016d3 e003
          	.db	$00, $3C, $80, $07, $04, $07, $28, $06
0016d4 3c00
0016d5 0780
0016d6 0704
0016d7 0628
          	.db	$94, $07, $B0, $00, $1E, $D0, $03, $00
0016d8 0794
0016d9 00b0
0016da d01e
0016db 0003
          	.db	$00, $03, $60, $01, $00, $80, $01, $30
0016dc 0300
0016dd 0160
0016de 8000
0016df 3001
          	.db	$20, $16, $08, $00, $80, $C7, $40, $01
0016e0 1620
0016e1 0008
0016e2 c780
0016e3 0140
          	.db	$02, $C0, $00, $18, $08, $03, $04, $00
0016e4 c002
0016e5 1800
0016e6 0308
0016e7 0004
          	.db	$30, $00, $06, $11, $06, $40, $20, $02
0016e8 0030
0016e9 1106
0016ea 4006
0016eb 0220
          	.db	$02, $00, $0C, $08, $40, $00, $00, $06
0016ec 0002
0016ed 080c
0016ee 0040
0016ef 0600
          	.db	$02, $20, $02, $10, $E8, $80, $00, $00
0016f0 2002
0016f1 1002
0016f2 80e8
0016f3 0000
          	.db	$04, $04, $04, $02, $19, $03, $80, $40
0016f4 0404
0016f5 0204
0016f6 0319
0016f7 4080
          	.db	$04, $32, $00, $06, $08, $48, $06, $04
0016f8 3204
0016f9 0600
0016fa 4808
0016fb 0406
          	.db	$06, $40, $02, $80, $20, $10, $00, $00
0016fc 4006
0016fd 8002
0016fe 1020
0016ff 0000
          	.db	$8C, $00, $11, $00, $00, $16, $02, $20
001700 008c
001701 0011
001702 1600
001703 2002
          	.db	$00, $00, $FB, $10, $88, $04, $80, $40
001704 0000
001705 10fb
001706 0488
001707 4080
          	.db	$C1, $44, $98, $48, $03, $68, $00, $45
001708 44c1
001709 4898
00170a 6803
00170b 4500
          	.db	$A8, $30, $B4, $00, $00, $04, $0F, $A0
00170c 30a8
00170d 00b4
00170e 0400
00170f a00f
          	.db	$00, $00, $44, $00, $61, $40, $00, $00
001710 0000
001711 0044
001712 4061
001713 0000
          	.db	$01, $00, $08, $00, $00, $46, $D2, $80
001714 0001
001715 0008
001716 4600
001717 80d2
          	.db	$00, $40, $00, $40, $DC, $08, $03, $60
001718 4000
001719 4000
00171a 08dc
00171b 6003
          	.db	$00, $00, $80, $01, $20, $08, $1C, $80
00171c 0000
00171d 0180
00171e 0820
00171f 801c
          	.db	$00, $00, $06, $C0, $03, $80, $8F, $60
001720 0000
001721 c006
001722 8003
001723 608f
          	.db	$01, $30, $10, $02, $F4, $20, $1E, $C0
001724 3001
001725 0210
001726 20f4
001727 c01e
          	.db	$03, $02, $84, $40, $30, $88, $01, $08
001728 0203
001729 4084
00172a 8830
00172b 0801
          	.db	$48, $06, $A4, $01, $30, $00, $1C, $00
00172c 0648
00172d 01a4
00172e 0030
00172f 001c
          	.db	$01, $00, $00, $0C, $C0, $01, $00, $00
001730 0001
001731 0c00
001732 01c0
001733 0000
          	.db	$01, $C0, $00, $00, $C0, $00, $00, $C6
001734 c001
001735 0000
001736 00c0
001737 c600
          	.db	$8C, $90, $00, $02, $00, $10, $00, $80
001738 908c
001739 0200
00173a 1000
00173b 8000
          	.db	$08, $03, $00, $00, $80, $80, $05, $30
00173c 0308
00173d 0000
00173e 8080
00173f 3005
          	.db	$01, $09, $08, $11, $07, $10, $00, $1A
001740 0901
001741 1108
001742 1007
001743 1a00
          	.db	$00, $A2, $00, $00, $8C, $A2, $01, $00
001744 a200
001745 0000
001746 a28c
001747 0001
          	.db	$80, $00, $C0, $04, $01, $00, $00, $30
001748 0080
001749 04c0
00174a 0001
00174b 3000
          	.db	$B1, $54, $01, $00, $01, $10, $04, $00
00174c 54b1
00174d 0001
00174e 1001
00174f 0004
          	.db	$80, $00, $A0, $00, $21, $00, $90, $11
001750 0080
001751 00a0
001752 0021
001753 1190
          	.db	$30, $01, $16, $08, $00, $12, $05, $20
001754 0130
001755 0816
001756 1200
001757 2005
          	.db	$06, $44, $26, $C0, $00, $58, $00, $60
001758 4406
001759 c026
00175a 5800
00175b 6000
          	.db	$00, $00, $80, $81, $09, $01, $00, $00
00175c 0000
00175d 8180
00175e 0109
00175f 0000
          	.db	$C4, $42, $00, $00, $03, $94, $93, $28
001760 42c4
001761 0000
001762 9403
001763 2893
          	.db	$01, $0C, $A0, $01, $30, $40, $1E, $C4
001764 0c01
001765 01a0
001766 4030
001767 c41e
          	.db	$00, $18, $00, $03, $60, $01, $3D, $88
001768 1800
001769 0300
00176a 0160
00176b 883d
          	.db	$07, $00, $00, $02, $06, $06, $05, $80
00176c 0007
00176d 0200
00176e 0606
00176f 8005
          	.db	$07, $F1, $20, $1E, $D0, $02, $00, $00
001770 f107
001771 1e20
001772 02d0
001773 0000
          	.db	$0F, $E0, $01, $00, $80, $01, $F0, $00
001774 e00f
001775 0001
001776 0180
001777 00f0
          	.db	$00, $C0, $03, $60, $EE, $48, $01, $02
001778 c000
001779 6003
00177a 48ee
00177b 0201
          	.db	$C0, $00, $18, $06, $31, $08, $06, $00
00177c 00c0
00177d 0618
00177e 0831
00177f 0006
          	.db	$00, $20, $0D, $14, $06, $C0, $0A, $06
001780 2000
001781 140d
001782 c006
001783 060a
          	.db	$42, $02, $03, $20, $85, $80, $00, $00
001784 0242
001785 2003
001786 8085
001787 0000
          	.db	$41, $40, $C4, $00, $41, $20, $00, $00
001788 4041
001789 00c4
00178a 2041
00178b 0000
          	.db	$82, $80, $08, $04, $B0, $00, $06, $00
00178c 8082
00178d 0408
00178e 00b0
00178f 0006
          	.db	$00, $14, $06, $06, $05, $18, $06, $C0
001790 1400
001791 0606
001792 1805
001793 c006
          	.db	$00, $80, $20, $82, $00, $00, $0C, $02
001794 8000
001795 8220
001796 0000
001797 020c
          	.db	$28, $00, $00, $16, $C0, $00, $01, $00
001798 0028
001799 1600
00179a 00c0
00179b 0001
          	.db	$03, $00, $EB, $00, $88, $04, $12, $00
00179c 0003
00179d 00eb
00179e 0488
00179f 0012
          	.db	$C0, $44, $98, $48, $03, $00, $00, $80
0017a0 44c0
0017a1 4898
0017a2 0003
0017a3 8000
          	.db	$A0, $01, $00, $22, $00, $04, $0F, $80
0017a4 01a0
0017a5 2200
0017a6 0400
0017a7 800f
          	.db	$00, $10, $88, $80, $00, $20, $01, $00
0017a8 1000
0017a9 8088
0017aa 2000
0017ab 0001
          	.db	$80, $04, $10, $01, $00, $46, $18, $00
0017ac 0480
0017ad 0110
0017ae 4600
0017af 0018
          	.db	$1A, $00, $00, $80, $A8, $04, $02, $06
0017b0 001a
0017b1 8000
0017b2 04a8
0017b3 0602
          	.db	$82, $01, $04, $08, $06, $09, $0A, $08
0017b4 0182
0017b5 0804
0017b6 0906
0017b7 080a
          	.db	$07, $06, $00, $00, $18, $00, $00, $80
0017b8 0607
0017b9 0000
0017ba 0018
0017bb 8000
          	.db	$BB, $60, $01, $00, $88, $01, $F0, $00
0017bc 60bb
0017bd 0001
0017be 0188
0017bf 00f0
          	.db	$1E, $80, $03, $00, $00, $03, $C0, $01
0017c0 801e
0017c1 0003
0017c2 0300
0017c3 01c0
          	.db	$0C, $80, $01, $10, $80, $01, $40, $00
0017c4 800c
0017c5 1001
0017c6 0180
0017c7 0040
          	.db	$1E, $80, $03, $00, $00, $0E, $C0, $01
0017c8 801e
0017c9 0003
0017ca 0e00
0017cb 01c0
          	.db	$00, $00, $01, $C0, $00, $1E, $00, $00
0017cc 0000
0017cd c001
0017ce 1e00
0017cf 0000
          	.db	$80, $F4, $80, $90, $00, $01, $00, $00
0017d0 f480
0017d1 9080
0017d2 0100
0017d3 0000
          	.db	$04, $03, $45, $20, $01, $00, $00, $A0
0017d4 0304
0017d5 2045
0017d6 0001
0017d7 a000
          	.db	$01, $04, $03, $10, $05, $20, $06, $80
0017d8 0401
0017d9 1003
0017da 2005
0017db 8006
          	.db	$00, $80, $40, $18, $40, $03, $00, $00
0017dc 8000
0017dd 1840
0017de 0340
0017df 0000
          	.db	$0D, $A0, $01, $00, $80, $00, $C0, $00
0017e0 a00d
0017e1 0001
0017e2 0080
0017e3 00c0
          	.db	$18, $02, $E7, $40, $01, $00, $09, $06
0017e4 0218
0017e5 40e7
0017e6 0001
0017e7 0609
          	.db	$00, $02, $02, $02, $00, $8C, $00, $80
0017e8 0200
0017e9 0202
0017ea 8c00
0017eb 8000
          	.db	$30, $11, $86, $00, $00, $02, $05, $08
0017ec 1130
0017ed 0086
0017ee 0200
0017ef 0805
          	.db	$02, $06, $46, $01, $02, $58, $00, $03
0017f0 0602
0017f1 0146
0017f2 5802
0017f3 0300
          	.db	$01, $00, $8C, $80, $09, $01, $00, $00
0017f4 0001
0017f5 808c
0017f6 0109
0017f7 0000
          	.db	$04, $28, $40, $02, $C4, $20, $01, $0C
0017f8 2804
0017f9 0240
0017fa 20c4
0017fb 0c01
          	.db	$80, $07, $F1, $20, $06, $D0, $03, $00
0017fc 0780
0017fd 20f1
0017fe d006
0017ff 0003
          	.db	$00, $0F, $64, $00, $3C, $80, $07, $00
001800 0f00
001801 0064
001802 803c
001803 0007
          	.db	$00, $02, $05, $10, $06, $80, $07, $B0
001804 0200
001805 1005
001806 8006
001807 b007
          	.db	$80, $1E, $D0, $03, $00, $00, $0F, $E8
001808 1e80
001809 03d0
00180a 0000
00180b e80f
          	.db	$01, $00, $80, $01, $30, $00, $06, $04
00180c 0001
00180d 0180
00180e 0030
00180f 0406
          	.db	$00, $00, $D5, $40, $01, $00, $00, $06
001810 0000
001811 40d5
001812 0001
001813 0600
          	.db	$C0, $00, $18, $00, $03, $02, $00, $0C
001814 00c0
001815 0018
001816 0203
001817 0c00
          	.db	$00, $00, $30, $00, $06, $00, $00, $10
001818 0000
001819 0030
00181a 0006
00181b 1000
          	.db	$05, $20, $02, $06, $06, $04, $02, $00
00181c 2005
00181d 0602
00181e 0406
00181f 0002
          	.db	$00, $08, $02, $06, $02, $03, $80, $9A
001820 0800
001821 0602
001822 0302
001823 9a80
          	.db	$80, $00, $20, $08, $06, $00, $02, $59
001824 0080
001825 0820
001826 0006
001827 5902
          	.db	$08, $0B, $00, $00, $0C, $00, $00, $30
001828 0b08
001829 0000
00182a 000c
00182b 3000
          	.db	$00, $06, $09, $05, $05, $10, $06, $80
00182c 0600
00182d 0509
00182e 1005
00182f 8006
          	.db	$02, $81, $20, $10, $00, $00, $80, $00
001830 8102
001831 1020
001832 0000
001833 0080
          	.db	$28, $00, $00, $16, $00, $10, $03, $F9
001834 0028
001835 1600
001836 1000
001837 f903
          	.db	$10, $88, $04, $C2, $06, $C0, $44, $98
001838 8810
001839 c204
00183a c006
00183b 9844
          	.db	$48, $12, $02, $00, $40, $A2, $01, $34
00183c 1248
00183d 0002
00183e a240
00183f 3401
          	.db	$09, $00, $04, $00, $0A, $0D, $84, $00
001840 0009
001841 0004
001842 0d0a
001843 0084
          	.db	$10, $04, $43, $08, $20, $04, $00, $01
001844 0410
001845 0843
001846 0420
001847 0100
          	.db	$20, $08, $00, $80, $00, $D0, $80, $02
001848 0820
001849 8000
00184a d000
00184b 0280
          	.db	$40, $A3, $08, $03, $02, $80, $01, $20
00184c a340
00184d 0308
00184e 8002
00184f 2001
          	.db	$03, $04, $05, $20, $08, $05, $28, $0A
001850 0403
001851 2005
001852 0508
001853 0a28
          	.db	$01, $00, $00, $C0, $04, $A6, $60, $01
001854 0001
001855 c000
001856 a604
001857 0160
          	.db	$00, $20, $06, $F0, $00, $1E, $00, $02
001858 2000
001859 f006
00185a 1e00
00185b 0200
          	.db	$00, $00, $03, $C0, $01, $30, $00, $01
00185c 0000
00185d c003
00185e 3001
00185f 0100
          	.db	$00, $00, $20, $05, $08, $01, $05, $80
001860 0000
001861 0520
001862 0108
001863 8005
          	.db	$01, $40, $00, $08, $80, $03, $00, $00
001864 4001
001865 0800
001866 0380
001867 0000
          	.db	$0C, $82, $80, $00, $00, $06, $C1, $40
001868 820c
001869 0080
00186a 0600
00186b 40c1
          	.db	$03, $BF, $8C, $90, $00, $02, $10, $12
00186c bf03
00186d 908c
00186e 0200
00186f 1210
          	.db	$22, $02, $10, $03, $02, $00, $00, $A0
001870 0222
001871 0310
001872 0002
001873 a000
          	.db	$01, $B0, $C0, $09, $08, $06, $80, $00
001874 b001
001875 09c0
001876 0608
001877 0080
          	.db	$80, $14, $50, $44, $03, $00, $00, $4C
001878 1480
001879 4450
00187a 0003
00187b 4c00
          	.db	$00, $01, $00, $00, $16, $C0, $02, $02
00187c 0100
00187d 0000
00187e c016
00187f 0202
          	.db	$B0, $80, $44, $01, $80, $10, $00, $08
001880 80b0
001881 0144
001882 1080
001883 0800
          	.db	$02, $0B, $04, $00, $0C, $04, $08, $10
001884 0b02
001885 0004
001886 040c
001887 1008
          	.db	$02, $46, $08, $40, $07, $16, $08, $02
001888 4602
001889 4008
00188a 1607
00188b 0208
          	.db	$00, $03, $03, $01, $00, $80, $01, $30
00188c 0300
00188d 0103
00188e 8000
00188f 3001
          	.db	$00, $00, $C0, $C0, $08, $01, $00, $00
001890 0000
001891 c0c0
001892 0108
001893 0000
          	.db	$D0, $98, $38, $01, $0C, $80, $07, $30
001894 98d0
001895 0138
001896 800c
001897 3007
          	.db	$40, $06, $D0, $01, $00, $00, $0F, $60
001898 0640
001899 01d0
00189a 0000
00189b 600f
          	.db	$40, $3C, $88, $07, $04, $0F, $A0, $07
00189c 3c40
00189d 0788
00189e 0f04
00189f 07a0
          	.db	$B0, $80, $16, $C0, $03, $00, $00, $0F
0018a0 80b0
0018a1 c016
0018a2 0003
0018a3 0f00
          	.db	$60, $01, $00, $80, $07, $F0, $03, $20
0018a4 0160
0018a5 8000
0018a6 f007
0018a7 2003
          	.db	$A1, $48, $01, $02, $C0, $80, $18, $03
0018a8 48a1
0018a9 0201
0018aa 80c0
0018ab 0318
          	.db	$0C, $00, $00, $30, $00, $06, $08, $88
0018ac 000c
0018ad 3000
0018ae 0600
0018af 8808
          	.db	$06, $04, $06, $00, $80, $02, $02, $00
0018b0 0406
0018b1 0006
0018b2 0280
0018b3 0002
          	.db	$00, $02, $40, $02, $41, $03, $A0, $B0
0018b4 0200
0018b5 0240
0018b6 0341
0018b7 b0a0
          	.db	$80, $00, $20, $04, $40, $C4, $08, $18
0018b8 0080
0018b9 0420
0018ba c440
0018bb 1808
          	.db	$88, $90, $00, $00, $0C, $02, $05, $06
0018bc 9088
0018bd 0000
0018be 020c
0018bf 0605
          	.db	$08, $80, $06, $20, $06, $80, $08, $90
0018c0 8008
0018c1 2006
0018c2 8006
0018c3 9008
          	.db	$04, $10, $00, $00, $2C, $00, $09, $00
0018c4 1004
0018c5 0000
0018c6 002c
0018c7 0009
          	.db	$00, $46, $C0, $04, $01, $00, $00, $80
0018c8 4600
0018c9 04c0
0018ca 0001
0018cb 8000
          	.db	$8C, $10, $89, $04, $80, $46, $C1, $44
0018cc 108c
0018cd 0489
0018ce 4680
0018cf 44c1
          	.db	$98, $48, $61, $00, $00, $45, $A4, $01
0018d0 4898
0018d1 0061
0018d2 4500
0018d3 01a4
          	.db	$00, $A2, $12, $10, $80, $00, $10, $24
0018d4 a200
0018d5 1012
0018d6 0080
0018d7 2410
          	.db	$00, $11, $20, $02, $00, $80, $90, $09
0018d8 1100
0018d9 0220
0018da 8000
0018db 0990
          	.db	$00, $80, $00, $10, $00, $00, $03, $00
0018dc 8000
0018dd 1000
0018de 0000
0018df 0003
          	.db	$80, $99, $80, $00, $10, $20, $04, $03
0018e0 9980
0018e1 0080
0018e2 2010
0018e3 0304
          	.db	$03, $02, $80, $01, $00, $00, $04, $01
0018e4 0203
0018e5 0180
0018e6 0000
0018e7 0104
          	.db	$07, $40, $10, $80, $81, $07, $80, $98
0018e8 4007
0018e9 8010
0018ea 0781
0018eb 9880
          	.db	$60, $01, $00, $00, $06, $F0, $00, $1E
0018ec 0160
0018ed 0000
0018ee f006
0018ef 1e00
          	.db	$00, $81, $02, $C8, $01, $0C, $00, $06
0018f0 8100
0018f1 c802
0018f2 0c01
0018f3 0600
          	.db	$08, $08, $06, $A0, $01, $40, $00, $1E
0018f4 0808
0018f5 a006
0018f6 4001
0018f7 1e00
          	.db	$C0, $03, $00, $00, $0E, $40, $02, $06
0018f8 03c0
0018f9 0000
0018fa 400e
0018fb 0602
          	.db	$00, $00, $04, $02, $EF, $8C, $90, $80
0018fc 0000
0018fd 0204
0018fe 8cef
0018ff 8090
          	.db	$20, $04, $08, $84, $00, $09, $0B, $00
001900 0420
001901 8408
001902 0900
001903 000b
          	.db	$00, $40, $A0, $01, $04, $00, $84, $08
001904 4000
001905 01a0
001906 0004
001907 0884
          	.db	$40, $06, $A0, $00, $80, $88, $18, $00
001908 0640
001909 00a0
00190a 8880
00190b 0018
          	.db	$03, $00, $00, $0D, $20, $02, $16, $01
00190c 0003
00190d 0d00
00190e 0220
00190f 0116
          	.db	$24, $02, $00, $00, $80, $C8, $54, $01
001910 0224
001911 0000
001912 c880
001913 0154
          	.db	$00, $21, $02, $00, $28, $00, $05, $0B
001914 2100
001915 0002
001916 0028
001917 0b05
          	.db	$02, $00, $20, $00, $10, $B0, $00, $42
001918 0002
001919 0020
00191a b010
00191b 4200
          	.db	$00, $00, $08, $05, $40, $04, $05, $20
00191c 0000
00191d 0508
00191e 0440
00191f 2005
          	.db	$06, $00, $02, $58, $00, $13, $00, $00
001920 0006
001921 5802
001922 1300
001923 0000
          	.db	$8C, $00, $08, $02, $00, $C0, $00, $28
001924 008c
001925 0208
001926 c000
001927 2800
          	.db	$58, $00, $00, $80, $DF, $68, $01, $0C
001928 0058
001929 8000
00192a 68df
00192b 0c01
          	.db	$80, $07, $F4, $00, $1E, $C0, $02, $00
00192c 0780
00192d 00f4
00192e c01e
00192f 0002
          	.db	$00, $03, $64, $40, $3C, $A0, $05, $02
001930 0300
001931 4064
001932 a03c
001933 0205
          	.db	$00, $14, $05, $40, $0A, $05, $A0, $07
001934 1400
001935 4005
001936 050a
001937 07a0
          	.db	$B1, $80, $1E, $D0, $03, $01, $00, $0F
001938 80b1
001939 d01e
00193a 0103
00193b 0f00
          	.db	$68, $00, $00, $80, $07, $30, $00, $1E
00193c 0068
00193d 8000
00193e 3007
00193f 1e00
          	.db	$10, $00, $80, $A7, $48, $01, $00, $00
001940 0010
001941 a780
001942 0148
001943 0000
          	.db	$06, $C4, $00, $18, $00, $00, $01, $03
001944 c406
001945 1800
001946 0000
001947 0301
          	.db	$30, $00, $02, $00, $00, $12, $05, $40
001948 0030
001949 0002
00194a 1200
00194b 4005
          	.db	$09, $05, $20, $06, $00, $40, $02, $02
00194c 0509
00194d 0620
00194e 4000
00194f 0202
          	.db	$00, $00, $88, $01, $04, $18, $00, $00
001950 0000
001951 0188
001952 1804
001953 0000
          	.db	$80, $E2, $00, $01, $00, $40, $46, $00
001954 e280
001955 0100
001956 4000
001957 0046
          	.db	$02, $41, $20, $02, $40, $08, $00, $30
001958 4102
001959 0220
00195a 0840
00195b 3000
          	.db	$00, $24, $08, $00, $10, $05, $20, $08
00195c 2400
00195d 0008
00195e 0510
00195f 0820
          	.db	$05, $10, $06, $80, $04, $80, $20, $10
001960 1005
001961 8006
001962 8004
001963 1020
          	.db	$00, $00, $80, $80, $29, $00, $00, $06
001964 0000
001965 8080
001966 0029
001967 0600
          	.db	$C1, $10, $18, $00, $00, $80, $ED, $10
001968 10c1
001969 0018
00196a 8000
00196b 10ed
          	.db	$12, $10, $06, $08, $19, $40, $A4, $20
00196c 1012
00196d 0806
00196e 4019
00196f 20a4
          	.db	$00, $04, $80, $00, $10, $00, $02, $00
001970 0400
001971 0080
001972 0010
001973 0002
          	.db	$00, $08, $00, $01, $20, $00, $04, $80
001974 0800
001975 0100
001976 0020
001977 8004
          	.db	$00, $10, $07, $08, $06, $04, $00, $10
001978 1000
001979 0807
00197a 0406
00197b 1000
          	.db	$00, $02, $40, $00, $08, $00, $01, $20
00197c 0200
00197d 0040
00197e 0008
00197f 2001
          	.db	$00, $04, $80, $00, $10, $00, $02, $40
001980 0400
001981 0080
001982 0010
001983 4002
          	.db	$00, $80, $B5, $24, $02, $10, $80, $D9
001984 8000
001985 24b5
001986 1002
001987 d980
          	.db	$2C, $00, $04, $80, $00, $10, $00, $02
001988 002c
001989 8004
00198a 1000
00198b 0200
          	.db	$40, $10, $0C, $00, $01, $20, $00, $04
00198c 1040
00198d 000c
00198e 2001
00198f 0400
          	.db	$80, $00, $10, $0F, $80, $10, $10, $00
001990 0080
001991 0f10
001992 1080
001993 0010
          	.db	$02, $40, $00, $08, $00, $01, $20, $00
001994 4002
001995 0800
001996 0100
001997 0020
          	.db	$04, $80, $00, $10, $00, $02, $40, $00
001998 8004
001999 1000
00199a 0200
00199b 0040
          	.db	$30, $CE, $04, $35, $D0, $E8, $18, $00
00199c ce30
00199d 3504
00199e e8d0
00199f 0018
          	.db	$04, $06, $08, $06, $10, $16, $08, $03
0019a0 0604
0019a1 0608
0019a2 1610
0019a3 0308
          	.db	$04, $00, $00, $10, $03, $20, $C3, $08
0019a4 0004
0019a5 1000
0019a6 2003
0019a7 08c3
          	.db	$03, $02, $40, $00, $08, $03, $04, $00
0019a8 0203
0019a9 0040
0019aa 0308
0019ab 0004
          	.db	$00, $10, $00, $02, $12, $40, $0F, $20
0019ac 1000
0019ad 0200
0019ae 4012
0019af 200f
          	.db	$E6, $20, $84, $04, $80, $10, $10, $02
0019b0 20e6
0019b1 0484
0019b2 1080
0019b3 0210
          	.db	$42, $40, $10, $09, $00, $21, $20, $28
0019b4 4042
0019b5 0910
0019b6 2100
0019b7 2820
          	.db	$84, $80, $10, $10, $0F, $80, $20, $12
0019b8 8084
0019b9 1010
0019ba 800f
0019bb 1220
          	.db	$02, $02, $48, $10, $0A, $00, $41, $28
0019bc 0202
0019bd 1048
0019be 000a
0019bf 2841
          	.db	$08, $05, $80, $20, $14, $00, $82, $48
0019c0 0508
0019c1 2080
0019c2 0014
0019c3 4882
          	.db	$50, $00, $95, $1D, $20, $14, $08, $02
0019c4 0050
0019c5 1d95
0019c6 1420
0019c7 0208
          	.db	$F3, $02, $04, $80, $00, $01, $10, $08
0019c8 02f3
0019c9 8004
0019ca 0100
0019cb 0810
          	.db	$00, $04, $00, $00, $10, $06, $80, $03
0019cc 0400
0019cd 0000
0019ce 0610
0019cf 0380
          	.db	$01, $04, $05, $20, $02, $01, $0C, $08
0019d0 0401
0019d1 2005
0019d2 0102
0019d3 080c
          	.db	$00, $00, $80, $82, $07, $80, $02, $0C
0019d4 0000
0019d5 8280
0019d6 8007
0019d7 0c02
          	.db	$04, $0E, $01, $80, $07, $10, $04, $80
0019d8 0e04
0019d9 8001
0019da 1007
0019db 8004
          	.db	$D7, $06, $20, $03, $01, $03, $10, $09
0019dc 06d7
0019dd 0320
0019de 0301
0019df 0910
          	.db	$04, $09, $50, $00, $08, $00, $00, $20
0019e0 0904
0019e1 0050
0019e2 0008
0019e3 2000
          	.db	$40, $04, $00, $00, $10, $04, $A0, $C0
0019e4 0440
0019e5 0000
0019e6 0410
0019e7 c0a0
          	.db	$03, $0A, $40, $00, $08, $00, $08, $02
0019e8 0a03
0019e9 0040
0019ea 0008
0019eb 0208
          	.db	$00, $14, $00, $00, $10, $80, $02, $07
0019ec 1400
0019ed 0000
0019ee 8010
0019ef 0702
          	.db	$04, $02, $02, $80, $03, $02, $40, $00
0019f0 0204
0019f1 8002
0019f2 0203
0019f3 0040
          	.db	$10, $00, $00, $01, $00, $00, $40, $01
0019f4 0010
0019f5 0100
0019f6 0000
0019f7 0140
          	.db	$00, $00, $04, $05, $FB, $10, $00, $00
0019f8 0000
0019f9 0504
0019fa 10fb
0019fb 0000
          	.db	$20, $00, $00, $40, $40, $00, $42, $02
0019fc 0020
0019fd 4000
0019fe 0040
0019ff 0242
          	.db	$00, $0A, $00, $00, $10, $06, $10, $06
001a00 0a00
001a01 0000
001a02 0610
001a03 0610
          	.db	$10, $20, $00, $04, $14, $FE, $0A, $10
001a04 2010
001a05 0400
001a06 fe14
001a07 100a
          	.db	$00, $82, $40, $00, $00, $04, $11, $02
001a08 8200
001a09 0040
001a0a 0400
001a0b 0211
          	.db	$41, $20, $08, $02, $20, $00, $02, $03
001a0c 2041
001a0d 0208
001a0e 0020
001a0f 0302
          	.db	$41, $00, $00, $80, $00, $00, $92, $80
001a10 0041
001a11 8000
001a12 0000
001a13 8092
          	.db	$00, $10, $00, $02, $40, $02, $01, $01
001a14 1000
001a15 0200
001a16 0240
001a17 0101
          	.db	$00, $00, $40, $80, $00, $00, $04, $12
001a18 0000
001a19 8040
001a1a 0000
001a1b 1204
          	.db	$04, $80, $00, $04, $80, $10, $02, $21
001a1c 8004
001a1d 0400
001a1e 1080
001a1f 2102
          	.db	$20, $02, $20, $00, $04, $01, $00, $CC
001a20 0220
001a21 0020
001a22 0104
001a23 cc00
          	.db	$20, $00, $04, $85, $00, $10, $00, $00
001a24 0020
001a25 8504
001a26 1000
001a27 0000
          	.db	$44, $00, $02, $20, $00, $64, $80, $01
001a28 0044
001a29 2002
001a2a 6400
001a2b 0180
          	.db	$80, $01, $11, $15, $E7, $C1, $04, $10
001a2c 0180
001a2d 1511
001a2e c1e7
001a2f 1004
          	.db	$00, $4A, $2D, $00, $24, $00, $05, $00
001a30 4a00
001a31 002d
001a32 0024
001a33 0005
          	.db	$02, $22, $80, $00, $D0, $00, $00, $DB
001a34 2202
001a35 0080
001a36 00d0
001a37 db00
          	.db	$8A, $27, $E0, $06, $5C, $01, $02, $3C
001a38 278a
001a39 06e0
001a3a 015c
001a3b 3c02
          	.db	$16, $E8, $40, $08, $00, $80, $2E, $50
001a3c e816
001a3d 0840
001a3e 8000
001a3f 502e
          	.db	$0C, $04, $80, $11, $0E, $80, $00, $00
001a40 040c
001a41 1180
001a42 800e
001a43 0000
          	.db	$26, $C8, $02, $50, $20, $11, $08, $00
001a44 c826
001a45 5002
001a46 1120
001a47 0008
          	.db	$40, $70, $04, $10, $80, $02, $00, $00
001a48 7040
001a49 1004
001a4a 0280
001a4b 0000
          	.db	$80, $80, $EA, $80, $03, $01, $00, $02
001a4c 8080
001a4d 80ea
001a4e 0103
001a4f 0200
          	.db	$08, $80, $02, $80, $00, $10, $20, $14
001a50 8008
001a51 8002
001a52 1000
001a53 1420
          	.db	$40, $10, $00, $00, $10, $20, $02, $05
001a54 1040
001a55 0000
001a56 2010
001a57 0502
          	.db	$06, $21, $A6, $80, $40, $10, $08, $02
001a58 2106
001a59 80a6
001a5a 1040
001a5b 0208
          	.db	$00, $00, $08, $04, $40, $40, $20, $02
001a5c 0000
001a5d 0408
001a5e 4040
001a5f 0220
          	.db	$01, $20, $02, $40, $40, $13, $02, $00
001a60 2001
001a61 4002
001a62 1340
001a63 0002
          	.db	$02, $00, $08, $00, $00, $10, $20, $00
001a64 0002
001a65 0008
001a66 1000
001a67 0020
          	.db	$40, $03, $A0, $E2, $00, $00, $04, $00
001a68 0340
001a69 e2a0
001a6a 0000
001a6b 0004
          	.db	$04, $00, $80, $20, $00, $00, $09, $00
001a6c 0004
001a6d 2080
001a6e 0000
001a6f 0009
          	.db	$00, $80, $00, $08, $06, $18, $05, $04
001a70 8000
001a71 0800
001a72 1806
001a73 0405
          	.db	$04, $08, $08, $03, $40, $03, $02, $00
001a74 0804
001a75 0308
001a76 0340
001a77 0002
          	.db	$08, $01, $00, $E4, $02, $00, $00, $10
001a78 0108
001a79 e400
001a7a 0002
001a7b 1000
          	.db	$04, $06, $20, $02, $10, $04, $08, $05
001a7c 0604
001a7d 0220
001a7e 0410
001a7f 0508
          	.db	$04, $00, $00, $80, $01, $02, $08, $05
001a80 0004
001a81 8000
001a82 0201
001a83 0508
          	.db	$02, $0F, $88, $98, $00, $01, $06, $04
001a84 0f02
001a85 9888
001a86 0100
001a87 0406
          	.db	$00, $00, $20, $04, $02, $00, $10, $06
001a88 0000
001a89 0420
001a8a 0002
001a8b 0610
          	.db	$05, $07, $20, $11, $00, $10, $03, $80
001a8c 0705
001a8d 1120
001a8e 1000
001a8f 8003
          	.db	$02, $02, $40, $80, $02, $80, $8F, $08
001a90 0202
001a91 8040
001a92 8002
001a93 088f
          	.db	$01, $02, $01, $06, $01, $06, $04, $0E
001a94 0201
001a95 0601
001a96 0601
001a97 0e04
          	.db	$10, $00, $04, $90, $00, $02, $00, $02
001a98 0010
001a99 9004
001a9a 0200
001a9b 0200
          	.db	$08, $02, $01, $04, $03, $20, $EE, $10
001a9c 0208
001a9d 0401
001a9e 2003
001a9f 10ee
          	.db	$0B, $40, $80, $00, $00, $08, $13, $80
001aa0 400b
001aa1 0080
001aa2 0800
001aa3 8013
          	.db	$07, $02, $06, $C0, $F2, $07, $80, $08
001aa4 0207
001aa5 c006
001aa6 07f2
001aa7 0880
          	.db	$22, $02, $08, $80, $D3, $04, $20, $00
001aa8 0222
001aa9 8008
001aaa 04d3
001aab 0020
          	.db	$11, $20, $02, $02, $00, $00, $20, $0E
001aac 2011
001aad 0202
001aae 0000
001aaf 0e20
          	.db	$20, $00, $40, $11, $40, $04, $00, $80
001ab0 0020
001ab1 1140
001ab2 0440
001ab3 8000
          	.db	$BE, $80, $00, $10, $00, $09, $40, $00
001ab4 80be
001ab5 1000
001ab6 0900
001ab7 0040
          	.db	$08, $00, $01, $00, $00, $04, $08, $40
001ab8 0008
001ab9 0001
001aba 0400
001abb 4008
          	.db	$05, $20, $06, $40, $06, $21, $07, $08
001abc 2005
001abd 4006
001abe 2106
001abf 0807
          	.db	$88, $DF, $00, $00, $10, $04, $40, $00
001ac0 df88
001ac1 0000
001ac2 0410
001ac3 0040
          	.db	$20, $00, $00, $20, $04, $0A, $01, $05
001ac4 0020
001ac5 2000
001ac6 0a04
001ac7 0501
          	.db	$80, $02, $08, $0B, $10, $00, $02, $40
001ac8 0280
001ac9 0b08
001aca 0010
001acb 4002
          	.db	$00, $88, $D4, $02, $80, $11, $08, $04
001acc 8800
001acd 02d4
001ace 1180
001acf 0408
          	.db	$02, $1A, $D9, $09, $20, $10, $00, $80
001ad0 1a02
001ad1 09d9
001ad2 1020
001ad3 8000
          	.db	$00, $00, $80, $00, $04, $03, $20, $0B
001ad4 0000
001ad5 0080
001ad6 0304
001ad7 0b20
          	.db	$01, $00, $20, $00, $44, $80, $0A, $04
001ad8 0001
001ad9 0020
001ada 8044
001adb 040a
          	.db	$00, $21, $A4, $80, $00, $10, $08, $02
001adc 2100
001add 80a4
001ade 1000
001adf 0208
          	.db	$40, $20, $0A, $40, $03, $20, $07, $08
001ae0 2040
001ae1 400a
001ae2 2003
001ae3 0807
          	.db	$03, $01, $00, $00, $10, $00, $10, $00
001ae4 0103
001ae5 0000
001ae6 0010
001ae7 0010
          	.db	$04, $42, $02, $02, $40, $04, $ED, $32
001ae8 4204
001ae9 0202
001aea 0440
001aeb 32ed
          	.db	$30, $04, $A0, $00, $90, $81, $00, $04
001aec 0430
001aed 00a0
001aee 8190
001aef 0400
          	.db	$56, $10, $20, $00, $40, $02, $01, $12
001af0 1056
001af1 0020
001af2 0240
001af3 1201
          	.db	$03, $60, $07, $08, $02, $15, $84, $56
001af4 6003
001af5 0807
001af6 1502
001af7 5684
          	.db	$00, $98, $00, $09, $00, $01, $28, $00
001af8 9800
001af9 0900
001afa 0100
001afb 0028
          	.db	$00, $86, $00, $10, $14, $00, $08, $50
001afc 8600
001afd 1000
001afe 0014
001aff 5008
          	.db	$81, $D3, $00, $20, $E0, $05, $1E, $04
001b00 d381
001b01 2000
001b02 05e0
001b03 041e
          	.db	$22, $0C, $02, $60, $C0, $0F, $14, $09
001b04 0c22
001b05 6002
001b06 0fc0
001b07 0914
          	.db	$74, $10, $00, $04, $41, $33, $05, $81
001b08 1074
001b09 0400
001b0a 3341
001b0b 8105
          	.db	$05, $80, $21, $00, $22, $50, $2F, $88
001b0c 8005
001b0d 0021
001b0e 5022
001b0f 882f
          	.db	$06, $F1, $60, $00, $00, $02, $40, $00
001b10 f106
001b11 0060
001b12 0200
001b13 0040
          	.db	$00, $04, $80, $10, $80, $02, $00, $08
001b14 0400
001b15 1080
001b16 0280
001b17 0800
          	.db	$DD, $10, $02, $02, $00, $20, $10, $03
001b18 10dd
001b19 0202
001b1a 2000
001b1b 0310
          	.db	$04, $00, $80, $10, $00, $00, $41, $80
001b1c 0004
001b1d 1080
001b1e 0000
001b1f 8041
          	.db	$05, $81, $05, $80, $00, $00, $02, $40
001b20 8105
001b21 8005
001b22 0000
001b23 4002
          	.db	$20, $08, $08, $81, $10, $00, $00, $04
001b24 0820
001b25 8108
001b26 0010
001b27 0400
          	.db	$00, $01, $06, $C0, $D5, $00, $80, $10
001b28 0100
001b29 c006
001b2a 00d5
001b2b 1080
          	.db	$08, $01, $02, $04, $80, $20, $10, $00
001b2c 0108
001b2d 0402
001b2e 2080
001b2f 0010
          	.db	$02, $40, $00, $80, $00, $00, $10, $0C
001b30 4002
001b31 8000
001b32 0000
001b33 0c10
          	.db	$80, $40, $04, $10, $00, $09, $05, $02
001b34 4080
001b35 1004
001b36 0900
001b37 0205
          	.db	$40, $20, $00, $04, $00, $80, $9C, $05
001b38 2040
001b39 0400
001b3a 8000
001b3b 059c
          	.db	$20, $00, $00, $40, $03, $20, $08, $01
001b3c 0020
001b3d 4000
001b3e 2003
001b3f 0108
          	.db	$06, $10, $05, $08, $0F, $DE, $10, $05
001b40 1006
001b41 0805
001b42 de0f
001b43 0510
          	.db	$04, $00, $04, $02, $20, $15, $08, $0E
001b44 0004
001b45 0204
001b46 1520
001b47 0e08
          	.db	$20, $50, $01, $42, $D9, $0D, $01, $00
001b48 5020
001b49 4201
001b4a 0dd9
001b4b 0001
          	.db	$40, $00, $09, $02, $80, $05, $10, $07
001b4c 0040
001b4d 0209
001b4e 0580
001b4f 0710
          	.db	$22, $00, $00, $02, $02, $04, $00, $01
001b50 0022
001b51 0200
001b52 0402
001b53 0100
          	.db	$00, $00, $04, $03, $82, $FC, $00, $00
001b54 0000
001b55 0304
001b56 fc82
001b57 0000
          	.db	$08, $00, $12, $09, $04, $80, $14, $40
001b58 0008
001b59 0912
001b5a 8004
001b5b 4014
          	.db	$06, $21, $08, $F6, $04, $02, $80, $10
001b5c 2106
001b5d f608
001b5e 0204
001b5f 1080
          	.db	$00, $00, $08, $08, $04, $04, $08, $14
001b60 0000
001b61 0808
001b62 0404
001b63 1408
          	.db	$80, $07, $20, $C3, $02, $08, $00, $00
001b64 0780
001b65 c320
001b66 0802
001b67 0000
          	.db	$80, $03, $10, $00, $00, $20, $10, $08
001b68 0380
001b69 0010
001b6a 2000
001b6b 0810
          	.db	$00, $00, $80, $0F, $10, $80, $00, $88
001b6c 0000
001b6d 0f80
001b6e 8010
001b6f 8800
          	.db	$D0, $04, $00, $00, $28, $00, $07, $02
001b70 04d0
001b71 0000
001b72 0028
001b73 0207
          	.db	$80, $04, $40, $00, $0A, $00, $02, $00
001b74 0480
001b75 0040
001b76 000a
001b77 0002
          	.db	$80, $05, $10, $06, $28, $05, $22, $40
001b78 0580
001b79 0610
001b7a 0528
001b7b 4022
          	.db	$02, $01, $20, $00, $00, $80, $02, $10
001b7c 0102
001b7d 0020
001b7e 8000
001b7f 1002
          	.db	$20, $00, $04, $85, $19, $02, $0B, $01
001b80 0020
001b81 8504
001b82 0219
001b83 010b
          	.db	$40, $00, $01, $00, $00, $04, $80, $02
001b84 0040
001b85 0001
001b86 0400
001b87 0280
          	.db	$02, $00, $00, $04, $00, $00, $FD, $0E
001b88 0002
001b89 0400
001b8a 0000
001b8b 0efd
          	.db	$01, $14, $10, $40, $0F, $80, $B9, $0A
001b8c 1401
001b8d 4010
001b8e 800f
001b8f 0ab9
          	.db	$0D, $81, $15, $10, $00, $04, $03, $10
001b90 810d
001b91 1015
001b92 0400
001b93 1003
          	.db	$00, $02, $02, $80, $04, $02, $D9, $06
001b94 0200
001b95 8002
001b96 0204
001b97 06d9
          	.db	$02, $08, $10, $11, $10, $0F, $80, $00
001b98 0802
001b99 1110
001b9a 0f10
001b9b 0080
          	.db	$00, $C0, $05, $10, $02, $01, $00, $00
001b9c c000
001b9d 1005
001b9e 0102
001b9f 0000
          	.db	$04, $02, $15, $A0, $20, $10, $A8, $06
001ba0 0204
001ba1 a015
001ba2 1020
001ba3 06a8
          	.db	$04, $01, $21, $01, $02, $14, $09, $20
001ba4 0104
001ba5 0121
001ba6 1402
001ba7 2009
          	.db	$00, $10, $18, $E0, $40, $20, $07, $01
001ba8 1000
001ba9 e018
001baa 2040
001bab 0107
          	.db	$18, $04, $03, $40, $05, $80, $04, $02
001bac 0418
001bad 4003
001bae 8005
001baf 0204
          	.db	$82, $40, $00, $8D, $36, $80, $F9, $36
001bb0 4082
001bb1 8d00
001bb2 8036
001bb3 36f9
          	.db	$80, $F9, $00, $3F, $40, $02, $54, $00
001bb4 f980
001bb5 3f00
001bb6 0240
001bb7 0054
          	.db	$09, $20, $01, $74, $80, $04, $90, $00
001bb8 2009
001bb9 7401
001bba 0480
001bbb 0090
          	.db	$12, $40, $02, $48, $00, $15, $0F, $5C
001bbc 4012
001bbd 4802
001bbe 1500
001bbf 5c0f
          	.db	$00, $09, $20, $01, $74, $80, $04, $90
001bc0 0900
001bc1 0120
001bc2 8074
001bc3 9004
          	.db	$00, $12, $40, $02, $5C, $80, $16, $A0
001bc4 1200
001bc5 0240
001bc6 805c
001bc7 a016
          	.db	$03, $74, $80, $BB, $80, $4C, $80, $81
001bc8 7403
001bc9 bb80
001bca 4c80
001bcb 8180
          	.db	$22, $00, $06, $C0, $00, $98, $00, $03
001bcc 0022
001bcd c006
001bce 9800
001bcf 0300
          	.db	$60, $00, $0C, $80, $01, $30, $00, $A2
001bd0 0060
001bd1 800c
001bd2 3001
001bd3 a200
          	.db	$0F, $32, $00, $06, $C0, $00, $98, $00
001bd4 320f
001bd5 0600
001bd6 00c0
001bd7 0098
          	.db	$03, $60, $00, $0C, $80, $01, $32, $50
001bd8 6003
001bd9 0c00
001bda 0180
001bdb 5032
          	.db	$A0, $C0, $04, $98, $80, $DC, $FF, $FF
001bdc c0a0
001bdd 9804
001bde dc80
001bdf ffff
          	.db	$FF
001be0 00ff
         
          zero_burst_bits:
          	.db	$00, $00, $00, $00, $00, $00, $00, $00
001be1 0000
001be2 0000
001be3 0000
001be4 0000
          	.db	$00, $20, $00, $00, $00, $00, $80, $00
001be5 2000
001be6 0000
001be7 0000
001be8 0080
          	.db	$00, $20, $29, $05, $00, $00, $24, $00
001be9 2000
001bea 0529
001beb 0000
001bec 0024
          	.db	$00, $48, $01, $00, $00, $A0, $00, $00
001bed 4800
001bee 0001
001bef a000
001bf0 0000
          	.db	$20, $80, $02, $00, $00, $00, $A0, $00
001bf1 8020
001bf2 0002
001bf3 0000
001bf4 00a0
          	.db	$00, $00, $00, $28, $00, $00, $08, $A8
001bf5 0000
001bf6 2800
001bf7 0000
001bf8 a808
          	.db	$02, $00, $00, $80, $94, $00, $00, $00
001bf9 0002
001bfa 8000
001bfb 0094
001bfc 0000
          	.db	$00, $85, $00, $00, $00, $00, $00, $85
001bfd 8500
001bfe 0000
001bff 0000
001c00 8500
          	.db	$00, $00, $04, $10, $80, $10, $00, $00
001c01 0000
001c02 1004
001c03 1080
001c04 0000
          	.db	$00, $00, $00, $82, $80, $10, $00, $00
001c05 0000
001c06 8200
001c07 1080
001c08 0000
          	.db	$40, $10, $00, $00, $00, $00, $00, $44
001c09 1040
001c0a 0000
001c0b 0000
001c0c 4400
          	.db	$00, $00, $00, $00, $00, $8A, $00, $00
001c0d 0000
001c0e 0000
001c0f 8a00
001c10 0000
          	.db	$00, $00, $00, $40, $04, $00, $00, $00
001c11 0000
001c12 4000
001c13 0004
001c14 0000
          	.db	$00, $00, $22, $00, $00, $08, $00, $11
001c15 0000
001c16 0022
001c17 0800
001c18 1100
          	.db	$0A, $04, $04, $20, $84, $00, $00, $00
001c19 040a
001c1a 2004
001c1b 0084
001c1c 0000
          	.db	$00, $84, $80, $00, $00, $00, $00, $10
001c1d 8400
001c1e 0080
001c1f 0000
001c20 1000
          	.db	$02, $00, $00, $00, $00, $80, $02, $00
001c21 0002
001c22 0000
001c23 8000
001c24 0002
          	.db	$40, $00, $00, $10, $81, $08, $00, $00
001c25 0040
001c26 1000
001c27 0881
001c28 0000
          	.db	$84, $00, $00, $00, $00, $00, $40, $02
001c29 0084
001c2a 0000
001c2b 0000
001c2c 0240
          	.db	$00, $00, $40, $00, $41, $20, $08, $00
001c2d 0000
001c2e 0040
001c2f 2041
001c30 0008
          	.db	$00, $41, $00, $00, $00, $00, $00, $10
001c31 4100
001c32 0000
001c33 0000
001c34 1000
          	.db	$04, $00, $00, $00, $00, $00, $80, $00
001c35 0004
001c36 0000
001c37 0000
001c38 0080
          	.db	$00, $00, $00, $00, $20, $08, $00, $00
001c39 0000
001c3a 0000
001c3b 0820
001c3c 0000
          	.db	$0A, $00, $20, $04, $00, $04, $00, $00
001c3d 000a
001c3e 0420
001c3f 0400
001c40 0000
          	.db	$84, $02, $00, $10, $00, $00, $08, $05
001c41 0284
001c42 1000
001c43 0000
001c44 0508
          	.db	$00, $00, $40, $48, $10, $00, $02, $00
001c45 0000
001c46 4840
001c47 0010
001c48 0002
          	.db	$40, $10, $00, $50, $00, $00, $20, $04
001c49 1040
001c4a 5000
001c4b 0000
001c4c 0420
          	.db	$00, $02, $00, $00, $80, $10, $00, $00
001c4d 0200
001c4e 0000
001c4f 1080
001c50 0000
          	.db	$00, $00, $00, $04, $00, $00, $00, $00
001c51 0000
001c52 0400
001c53 0000
001c54 0000
          	.db	$08, $00, $00, $00, $00, $10, $00, $00
001c55 0008
001c56 0000
001c57 1000
001c58 0000
          	.db	$00, $40, $00, $00, $10, $00, $00, $00
001c59 4000
001c5a 0000
001c5b 0010
001c5c 0000
          	.db	$01, $00, $00, $00, $00, $21, $08, $00
001c5d 0001
001c5e 0000
001c5f 2100
001c60 0008
          	.db	$05, $00, $00, $04, $01, $00, $40, $00
001c61 0005
001c62 0400
001c63 0001
001c64 0040
          	.db	$00, $02, $88, $00, $04, $00, $00, $00
001c65 0200
001c66 0088
001c67 0004
001c68 0000
          	.db	$04, $00, $00, $00, $00, $00, $40, $00
001c69 0004
001c6a 0000
001c6b 0000
001c6c 0040
          	.db	$00, $00, $40, $00, $00, $04, $20, $08
001c6d 0000
001c6e 0040
001c6f 0400
001c70 0820
          	.db	$00, $00, $00, $20, $00, $00, $04, $00
001c71 0000
001c72 2000
001c73 0000
001c74 0004
          	.db	$00, $00, $02, $00, $00, $00, $00, $00
001c75 0000
001c76 0002
001c77 0000
001c78 0000
          	.db	$20, $10, $80, $00, $00, $00, $00, $00
001c79 1020
001c7a 0080
001c7b 0000
001c7c 0000
          	.db	$00, $10, $02, $00, $48, $00, $00, $02
001c7d 1000
001c7e 0002
001c7f 0048
001c80 0200
          	.db	$00, $00, $24, $00, $00, $00, $00, $00
001c81 0000
001c82 0024
001c83 0000
001c84 0000
          	.db	$10, $02, $00, $00, $10, $00, $84, $00
001c85 0210
001c86 0000
001c87 0010
001c88 0084
          	.db	$00, $00, $00, $00, $90, $00, $00, $00
001c89 0000
001c8a 0000
001c8b 0090
001c8c 0000
          	.db	$00, $00, $20, $01, $00, $00, $20, $00
001c8d 0000
001c8e 0120
001c8f 0000
001c90 0020
          	.db	$42, $84, $02, $00, $40, $08, $00, $80
001c91 8442
001c92 0002
001c93 0840
001c94 8000
          	.db	$00, $00, $00, $41, $00, $80, $00, $00
001c95 0000
001c96 4100
001c97 8000
001c98 0000
          	.db	$00, $00, $00, $00, $00, $00, $00, $00
001c99 0000
001c9a 0000
001c9b 0000
001c9c 0000
          	.db	$08, $00, $00, $00, $00, $00, $00, $04
001c9d 0008
001c9e 0000
001c9f 0000
001ca0 0400
          	.db	$00, $00, $00, $00, $00, $00, $00, $00
001ca1 0000
001ca2 0000
001ca3 0000
001ca4 0000
          	.db	$00, $00, $20, $00, $40, $A0, $80, $10
001ca5 0000
001ca6 0020
001ca7 a040
001ca8 1080
          	.db	$10, $00, $84, $04, $00, $80, $10, $00
001ca9 0010
001caa 0484
001cab 8000
001cac 0010
          	.db	$00, $80, $10, $09, $02, $41, $0A, $24
001cad 8000
001cae 0910
001caf 4102
001cb0 240a
          	.db	$82, $04, $00, $00, $02, $00, $00, $08
001cb1 0482
001cb2 0000
001cb3 0002
001cb4 0800
          	.db	$85, $50, $A1, $A8, $52, $21, $20, $25
001cb5 5085
001cb6 a8a1
001cb7 2152
001cb8 2520
          	.db	$00, $00, $54, $55, $AA, $80, $14, $08
001cb9 0000
001cba 5554
001cbb 80aa
001cbc 0814
          	.db	$01, $00, $00, $00, $08, $09, $00, $00
001cbd 0001
001cbe 0000
001cbf 0908
001cc0 0000
          	.db	$00, $04, $00, $00, $01, $08, $00, $01
001cc1 0400
001cc2 0000
001cc3 0801
001cc4 0100
          	.db	$00, $20, $00, $10, $00, $00, $08, $02
001cc5 2000
001cc6 1000
001cc7 0000
001cc8 0208
          	.db	$00, $02, $00, $08, $A1, $40, $42, $28
001cc9 0200
001cca 0800
001ccb 40a1
001ccc 2842
          	.db	$2A, $A8, $22, $00, $00, $80, $82, $00
001ccd a82a
001cce 0022
001ccf 8000
001cd0 0082
          	.db	$00, $40, $21, $05, $40, $40, $00, $10
001cd1 4000
001cd2 0521
001cd3 4040
001cd4 1000
          	.db	$A4, $0A, $91, $00, $0A, $12, $8A, $02
001cd5 0aa4
001cd6 0091
001cd7 120a
001cd8 028a
          	.db	$01, $40, $08, $00, $02, $80, $20, $40
001cd9 4001
001cda 0008
001cdb 8002
001cdc 4020
          	.db	$00, $00, $00, $00, $04, $00, $00, $2A
001cdd 0000
001cde 0000
001cdf 0004
001ce0 2a00
          	.db	$42, $20, $00, $8A, $90, $2A, $54, $00
001ce1 2042
001ce2 8a00
001ce3 2a90
001ce4 0054
          	.db	$00, $50, $04, $55, $48, $15, $54, $81
001ce5 5000
001ce6 5504
001ce7 1548
001ce8 8154
          	.db	$42, $00, $00, $20, $00, $00, $20, $80
001ce9 0042
001cea 2000
001ceb 0000
001cec 8020
          	.db	$02, $02, $50, $08, $51, $8A, $14, $00
001ced 0202
001cee 0850
001cef 8a51
001cf0 0014
          	.db	$40, $51, $A2, $04, $00, $80, $94, $00
001cf1 5140
001cf2 04a2
001cf3 8000
001cf4 0094
          	.db	$89, $2A, $00, $54, $09, $00, $22, $4A
001cf5 2a89
001cf6 5400
001cf7 0009
001cf8 4a22
          	.db	$00, $10, $21, $09, $00, $00, $25, $00
001cf9 1000
001cfa 0921
001cfb 0000
001cfc 0025
          	.db	$48, $09, $00, $22, $00, $15, $08, $84
001cfd 0948
001cfe 2200
001cff 1500
001d00 8408
          	.db	$A2, $12, $00, $05, $A8, $08, $20, $01
001d01 12a2
001d02 0500
001d03 08a8
001d04 0120
          	.db	$14, $00, $88, $00, $0A, $00, $24, $00
001d05 0014
001d06 0088
001d07 000a
001d08 0024
          	.db	$09, $00, $00, $54, $00, $20, $41, $01
001d09 0009
001d0a 5400
001d0b 2000
001d0c 0141
          	.db	$00, $02, $28, $21, $00, $00, $92, $02
001d0d 0200
001d0e 2128
001d0f 0000
001d10 0292
          	.db	$02, $24, $11, $10, $92, $42, $00, $20
001d11 2402
001d12 1011
001d13 4292
001d14 2000
          	.db	$90, $08, $00, $80, $A4, $40, $00, $A0
001d15 0890
001d16 8000
001d17 40a4
001d18 a000
          	.db	$24, $01, $40, $49, $81, $80, $00, $00
001d19 0124
001d1a 4940
001d1b 8081
001d1c 0000
          	.db	$09, $00, $00, $14, $01, $80, $00, $42
001d1d 0009
001d1e 1400
001d1f 8001
001d20 4200
          	.db	$45, $00, $00, $20, $54, $00, $00, $00
001d21 0045
001d22 2000
001d23 0054
001d24 0000
          	.db	$00, $A8, $00, $80, $00, $00, $52, $00
001d25 a800
001d26 8000
001d27 0000
001d28 0052
          	.db	$00, $00, $14, $00, $08, $88, $0A, $00
001d29 0000
001d2a 0014
001d2b 8808
001d2c 000a
          	.db	$00, $00, $00, $50, $00, $00, $A0, $20
001d2d 0000
001d2e 5000
001d2f 0000
001d30 20a0
          	.db	$05, $00, $00, $0A, $14, $08, $80, $40
001d31 0005
001d32 0a00
001d33 0814
001d34 4080
          	.db	$A4, $00, $00, $00, $82, $14, $00, $00
001d35 00a4
001d36 0000
001d37 1482
001d38 0000
          	.db	$00, $00, $44, $01, $00, $00, $84, $02
001d39 0000
001d3a 0144
001d3b 0000
001d3c 0284
          	.db	$02, $08, $24, $00, $00, $00, $20, $0A
001d3d 0802
001d3e 0024
001d3f 0000
001d40 0a20
          	.db	$00, $00, $54, $24, $00, $01, $80, $A2
001d41 0000
001d42 2454
001d43 0100
001d44 a280
          	.db	$00, $00, $14, $11, $05, $00, $80, $90
001d45 0000
001d46 1114
001d47 0005
001d48 9080
          	.db	$28, $00, $00, $00, $40, $01, $00, $80
001d49 0028
001d4a 0000
001d4b 0140
001d4c 8000
          	.db	$44, $01, $00, $00, $24, $0A, $00, $00
001d4d 0144
001d4e 0000
001d4f 0a24
001d50 0000
          	.db	$00, $20, $05, $00, $00, $00, $50, $02
001d51 2000
001d52 0005
001d53 0000
001d54 0250
          	.db	$00, $00, $00, $88, $02, $10, $00, $00
001d55 0000
001d56 8800
001d57 1002
001d58 0000
          	.db	$09, $00, $00, $08, $14, $00, $00, $00
001d59 0009
001d5a 0800
001d5b 0014
001d5c 0000
          	.db	$40, $02, $00, $00, $8A, $02, $08, $00
001d5d 0240
001d5e 0000
001d5f 028a
001d60 0008
          	.db	$91, $00, $80, $00, $00, $A1, $00, $00
001d61 0091
001d62 0080
001d63 a100
001d64 0000
          	.db	$00, $10, $02, $00, $01, $84, $02, $08
001d65 1000
001d66 0002
001d67 8401
001d68 0802
          	.db	$00, $84, $28, $00, $00, $10, $00, $21
001d69 8400
001d6a 0028
001d6b 1000
001d6c 2100
          	.db	$01, $00, $01, $00, $04, $09, $00, $00
001d6d 0001
001d6e 0001
001d6f 0904
001d70 0000
          	.db	$A8, $90, $02, $22, $08, $09, $04, $00
001d71 90a8
001d72 2202
001d73 0908
001d74 0004
          	.db	$50, $01, $00, $00, $14, $00, $00, $28
001d75 0150
001d76 0000
001d77 0014
001d78 2800
          	.db	$00, $00, $08, $00, $04, $AA, $02, $20
001d79 0000
001d7a 0008
001d7b aa04
001d7c 2002
          	.db	$20, $40, $00, $2A, $00, $00, $08, $00
001d7d 4020
001d7e 2a00
001d7f 0000
001d80 0008
          	.db	$00, $80, $AA, $8A, $00, $A4, $44, $A5
001d81 8000
001d82 8aaa
001d83 a400
001d84 a544
          	.db	$22, $04, $0A, $05, $0A, $41, $85, $82
001d85 0422
001d86 050a
001d87 410a
001d88 8285
          	.db	$A2, $88, $00, $00, $40, $00, $40, $00
001d89 88a2
001d8a 0000
001d8b 0040
001d8c 0040
          	.db	$00, $08, $00, $00, $00, $80, $00, $00
001d8d 0800
001d8e 0000
001d8f 8000
001d90 0000
          	.db	$40, $54, $50, $04, $A0, $14, $42, $00
001d91 5440
001d92 0450
001d93 14a0
001d94 0042
          	.db	$A9, $80, $00, $20, $01, $44, $54, $80
001d95 80a9
001d96 2000
001d97 4401
001d98 8054
          	.db	$08, $08, $01, $22, $10, $88, $50, $A5
001d99 0808
001d9a 2201
001d9b 8810
001d9c a550
          	.db	$A0, $2A, $28, $54, $15, $A1, $10, $00
001d9d 2aa0
001d9e 5428
001d9f a115
001da0 0010
          	.db	$02, $00, $40, $8A, $24, $00, $80, $10
001da1 0002
001da2 8a40
001da3 0024
001da4 1080
          	.db	$02, $00, $00, $00, $00, $00, $22, $00
001da5 0002
001da6 0000
001da7 0000
001da8 0022
          	.db	$00, $80, $0A, $41, $01, $00, $50, $54
001da9 8000
001daa 410a
001dab 0001
001dac 5450
          	.db	$01, $A0, $AA, $04, $50, $08, $09, $AA
001dad a001
001dae 04aa
001daf 0850
001db0 aa09
          	.db	$28, $A9, $14, $01, $48, $05, $A4, $12
001db1 a928
001db2 0114
001db3 0548
001db4 12a4
          	.db	$02, $00, $AA, $90, $28, $A5, $88, $A0
001db5 0002
001db6 90aa
001db7 a528
001db8 a088
          	.db	$80, $10, $A9, $22, $00, $00, $10, $08
001db9 1080
001dba 22a9
001dbb 0000
001dbc 0810
          	.db	$00, $24, $12, $00, $00, $00, $10, $00
001dbd 2400
001dbe 0012
001dbf 0000
001dc0 0010
          	.db	$00, $00, $00, $10, $50, $00, $00, $00
001dc1 0000
001dc2 1000
001dc3 0050
001dc4 0000
          	.db	$02, $20, $00, $00, $80, $00, $00, $00
001dc5 2002
001dc6 0000
001dc7 0080
001dc8 0000
          	.db	$01, $40, $00, $22, $08, $80, $00, $00
001dc9 4001
001dca 2200
001dcb 8008
001dcc 0000
          	.db	$00, $00, $A0, $00, $00, $40, $28, $44
001dcd 0000
001dce 00a0
001dcf 4000
001dd0 4428
          	.db	$00, $00, $51, $00, $04, $00, $00, $10
001dd1 0000
001dd2 0051
001dd3 0004
001dd4 1000
          	.db	$00, $02, $00, $00, $01, $10, $00, $00
001dd5 0200
001dd6 0000
001dd7 1001
001dd8 0000
          	.db	$20, $00, $00, $00, $50, $42, $02, $00
001dd9 0020
001dda 0000
001ddb 4250
001ddc 0002
          	.db	$10, $00, $10, $00, $00, $08, $00, $00
001ddd 0010
001dde 0010
001ddf 0800
001de0 0000
          	.db	$84, $28, $00, $00, $00, $04, $02, $20
001de1 2884
001de2 0000
001de3 0400
001de4 2002
          	.db	$00, $00, $00, $01, $01, $00, $00, $00
001de5 0000
001de6 0100
001de7 0001
001de8 0000
          	.db	$01, $00, $00, $00, $00, $05, $00, $00
001de9 0001
001dea 0000
001deb 0500
001dec 0000
          	.db	$80, $40, $01, $00, $02, $80, $10, $00
001ded 4080
001dee 0001
001def 8002
001df0 0010
          	.db	$00, $00, $00, $40, $01, $00, $80, $52
001df1 0000
001df2 4000
001df3 0001
001df4 5280
          	.db	$04, $00, $00, $00, $04, $00, $00, $00
001df5 0004
001df6 0000
001df7 0004
001df8 0000
          	.db	$00, $02, $40, $00, $00, $80, $02, $40
001df9 0200
001dfa 0040
001dfb 8000
001dfc 4002
          	.db	$04, $20, $A0, $00, $00, $00, $21, $88
001dfd 2004
001dfe 00a0
001dff 0000
001e00 8821
          	.db	$00, $04, $20, $50, $00, $40, $00, $00
001e01 0400
001e02 5020
001e03 4000
001e04 0000
          	.db	$40, $00, $00, $20, $40, $10, $00, $82
001e05 0040
001e06 2000
001e07 1040
001e08 8200
          	.db	$02, $00, $00, $00, $00, $12, $00, $00
001e09 0002
001e0a 0000
001e0b 1200
001e0c 0000
          	.db	$00, $00, $40, $01, $00, $00, $00, $00
001e0d 0000
001e0e 0140
001e0f 0000
001e10 0000
          	.db	$50, $00, $00, $80, $08, $44, $02, $00
001e11 0050
001e12 8000
001e13 4408
001e14 0002
          	.db	$00, $14, $00, $00, $00, $00, $40, $00
001e15 1400
001e16 0000
001e17 0000
001e18 0040
          	.db	$00, $A0, $54, $01, $00, $00, $08, $00
001e19 a000
001e1a 0154
001e1b 0000
001e1c 0008
          	.db	$00, $00, $00, $54, $00, $00, $02, $04
001e1d 0000
001e1e 5400
001e1f 0000
001e20 0402
          	.db	$40, $02, $00, $08, $00, $00, $14, $00
001e21 0240
001e22 0800
001e23 0000
001e24 0014
          	.db	$00, $00, $00, $00, $29, $24, $00, $00
001e25 0000
001e26 0000
001e27 2429
001e28 0000
          	.db	$14, $00, $40, $00, $00, $20, $00, $80
001e29 0014
001e2a 0040
001e2b 2000
001e2c 8000
          	.db	$14, $A5, $10, $00, $00, $48, $00, $00
001e2d a514
001e2e 0010
001e2f 4800
001e30 0000
          	.db	$01, $00, $28, $00, $80, $00, $01, $14
001e31 0001
001e32 0028
001e33 0080
001e34 1401
          	.db	$00, $00, $00, $00, $20, $00, $40, $88
001e35 0000
001e36 0000
001e37 0020
001e38 8840
          	.db	$40, $21, $28, $00, $20, $05, $00, $00
001e39 2140
001e3a 0028
001e3b 0520
001e3c 0000
          	.db	$00, $00, $08, $00, $00, $80, $02, $25
001e3d 0000
001e3e 0008
001e3f 8000
001e40 2502
          	.db	$00, $04, $05, $40, $08, $00, $80, $02
001e41 0400
001e42 4005
001e43 0008
001e44 0280
          	.db	$20, $00, $00, $00, $48, $00, $00, $00
001e45 0020
001e46 0000
001e47 0048
001e48 0000
          	.db	$00, $00, $24, $00, $00, $00, $80, $40
001e49 0000
001e4a 0024
001e4b 0000
001e4c 4080
          	.db	$42, $10, $00, $08, $20, $01, $00, $00
001e4d 1042
001e4e 0800
001e4f 0120
001e50 0000
          	.db	$15, $00, $00, $14, $00, $00, $28, $00
001e51 0015
001e52 1400
001e53 0000
001e54 0028
          	.db	$00, $08, $00, $00, $08, $AA, $10, $21
001e55 0800
001e56 0000
001e57 aa08
001e58 2110
          	.db	$50, $00, $00, $10, $00, $00, $A8, $02
001e59 0050
001e5a 1000
001e5b 0000
001e5c 02a8
          	.db	$A0, $54, $90, $52, $AA, $02, $20, $01
001e5d 54a0
001e5e 5290
001e5f 02aa
001e60 0120
          	.db	$80, $14, $00, $08, $00, $A0, $50, $40
001e61 1480
001e62 0800
001e63 a000
001e64 4050
          	.db	$88, $00, $20, $80, $40, $02, $00, $00
001e65 0088
001e66 8020
001e67 0240
001e68 0000
          	.db	$04, $00, $00, $00, $00, $10, $00, $00
001e69 0004
001e6a 0000
001e6b 1000
001e6c 0000
          	.db	$10, $84, $40, $01, $80, $20, $00, $02
001e6d 8410
001e6e 0140
001e6f 2080
001e70 0200
          	.db	$00, $50, $2A, $00, $A8, $A0, $42, $88
001e71 5000
001e72 002a
001e73 a0a8
001e74 8842
          	.db	$42, $11, $AA, $00, $12, $41, $25, $25
001e75 1142
001e76 00aa
001e77 4112
001e78 2525
          	.db	$84, $08, $00, $40, $55, $20, $A0, $0A
001e79 0884
001e7a 4000
001e7b 2055
001e7c 0aa0
          	.db	$A8, $0A, $A0, $40, $00, $54, $01, $24
001e7d 0aa8
001e7e 40a0
001e7f 5400
001e80 2401
          	.db	$00, $20, $15, $00, $00, $00, $00, $40
001e81 2000
001e82 0015
001e83 0000
001e84 4000
          	.db	$01, $00, $00, $84, $00, $05, $00, $04
001e85 0001
001e86 8400
001e87 0500
001e88 0400
          	.db	$04, $80, $44, $80, $50, $95, $A8, $20
001e89 8004
001e8a 8044
001e8b 9550
001e8c 20a8
          	.db	$A8, $10, $08, $48, $25, $A8, $12, $42
001e8d 10a8
001e8e 4808
001e8f a825
001e90 4212
          	.db	$08, $80, $00, $2A, $41, $50, $80, $80
001e91 8008
001e92 2a00
001e93 5041
001e94 8080
          	.db	$12, $45, $A4, $2A, $14, $24, $54, $40
001e95 4512
001e96 2aa4
001e97 2414
001e98 4054
          	.db	$95, $90, $00, $00, $40, $00, $00, $00
001e99 9095
001e9a 0000
001e9b 0040
001e9c 0000
          	.db	$00, $00, $01, $00, $00, $00
001e9d 0000
001e9e 0001
001e9f 0000
         
         ;*****************************************************************************
          .include "cam_boot.avr"
         
          	.org $3f00	;SMALLBOOTSTART
         	;b
003f00 9ab8      	sbi ddrb,IREQ
003f01 98c0      	cbi portb,IREQ
         
003f02 e50f      	ldi r16,low(ramend)
003f03 bf0d      	out spl,r16
003f04 e008      	ldi r16,high(ramend)
003f05 bf0e      	out sph,r16
         
         
         ;;;;;;;;;;;;;;;;;;;;;;;;;;;;;;;;;;;;;;;;;;;;;;;;;;;;;;;;;;;;;;;;;;;;;;;;
003f06 27ff      	clr zh
003f07 27ee      	clr zl
003f08 d0bf      	rcall tstks_flash
003f09 f411      	brne errosnovnoj
          end_provflash:
003f0a 940c 0007 	jmp start
         
          errosnovnoj:
003f0c e4f0      	ldi zh,$40	;$20*2
003f0d 27ee      	clr zl
003f0e d0b9      	rcall tstks_flash	;copija horoshaja?
003f0f f7d1      	brne end_provflash	;startuem hot` osnovnaja i plohaja
003f10 c00f      	rjmp copyflash
         
         
          .org $3f20
         
         ;copyflash:
003f20 27bb      	clr xh
003f21 27aa      	clr xl
003f22 e74c      	ldi r20,124	;sektora
          copyflashcikl:
003f23 e2f0      	ldi zh,$20
003f24 27ee      	clr zl
003f25 0fea      	add zl,xl
003f26 0ffb      	add zh,xh
         
003f27 e0d2      	ldi yh,high(bufprog)
003f28 e1c1      	ldi yl,low(bufprog)
003f29 e830      	ldi r19,128
003f2a 0fee      	lsl zl
003f2b 1fff      	rol zh
         
          copysek:
003f2c 9005      	lpm r0,z+
003f2d 9209      	st y+,r0
003f2e 953a      	dec r19
003f2f f7e1      	brne copysek
         
003f30 e0d2      	ldi yh,high(bufprog)
003f31 e1c1      	ldi yl,low(bufprog)
003f32 e830      	ldi r19,128
003f33 2ffb      	mov zh,xh
003f34 2fea      	mov zl,xl
003f35 0fee      	lsl zl
003f36 1fff      	rol zh
         
          tstsek:
003f37 9005      	lpm r0,z+
003f38 9109      	ld r16,y+
003f39 1500      	cp r16,r0
003f3a f461      	brne izmenilos
         
003f3b 953a      	dec r19
003f3c f7d1      	brne tstsek
         
003f3d 27ff      	clr zh
003f3e e4e0      	ldi zl,$40
003f3f 0fae      	add xl,zl
003f40 1fbf      	adc xh,zh
         
003f41 e203      ldi r16,'#'
003f42 d0a4      rcall wsp
         
003f43 954a      	dec r20
003f44 f6f1      	brne copyflashcikl
         
003f45 940c 0000 	jmp 0
         
          izmenilos:
         
003f47 e0d2      	ldi yh,high(bufprog)
003f48 e1c1      	ldi yl,low(bufprog)
003f49 2fea      	mov zl,xl
003f4a 2ffb      	mov zh,xh
003f4b 940e 3f70 	call write_page
         
         ;ldi r16,'('
         ;rcall wsp
         ;mov r16,xh
         ;rcall wbp
         ;mov r16,xl
         ;rcall wbp
         
003f4d cfd5      	rjmp copyflashcikl
         
         ;-------------------------------------------------
         ;Программа переносит содержимое ОЗУ с адреса RAM в FLASH с адреса Z
         ;Используем размер BOOT области-128слов ( 256 байт-4 страницы).
         ;( 62-страницы ), накапливаемый код ($7C0-$F7F) ( 62-страницы )
         ;Размер буфера - 64слова ( 1страница, 128 байта )
         
          	.org $3f70
         
         ;write_page:
         ;	 Y указываеt адрес RAM где лежит загружаемый код
         ;	 Z указываеt адрес FLASH начиная с которого будем писать код
         
003f70 920f      	push r0
003f71 921f      	push r1
003f72 931f      	push r17
003f73 933f      	push r19
003f74 934f      	push r20
003f75 935f      	push r21
003f76 938f      	push r24
003f77 939f      	push r25
003f78 93af      	push xl
003f79 93bf      	push xh
         
         
         
003f7a 0fee      	lsl ZL						;addr*2
003f7b 1fff      	rol ZH
003f7c 2f8e      	mov r24,zl
003f7d 2f9f      	mov r25,zh
003f7e 2f4c      	mov r20,yl	;y-adres ozu
003f7f 2f5d      	mov r21,yh
         
         
          write_page_cikl:
003f80 e033      	ldi r19,(1<<PGERS)|(1<<SPMEN)	;очищаем страницу памяти программ
         					; из временного буфера
003f81 940e 3fb9 	call Do_SPM
         
003f83 e131      	 ldi r19,(1<<RWWSRE)|(1<<SPMEN) ;разрешаем адресацию области RWW
003f84 940e 3fb9 	call Do_SPM
         
003f86 e8a0      	ldi xl,LOW(PAGESIZE*2)	;заполняем буфер страницы содержимым ОЗУ
003f87 e0b0      	ldi xh,HIGH(PAGESIZE*2)
         
          WrLoop:
003f88 9009      	ld r0,Y+	;y-adres ozu
003f89 9019      	ld r1,Y+
003f8a e031      	ldi r19,(1<<SPMEN)
003f8b 940e 3fb9 	call Do_SPM
         
003f8d 9632      	adiw ZH:ZL,2	;z-adres flash
         
003f8e 9712      	sbiw xl,2
003f8f f7c1      	brne WrLoop
         
003f90 2fe8      	mov zl,r24	;vosstanavlivaem Z
003f91 2ff9      	mov zh,r25
         
003f92 e035      	ldi r19,(1<<PGWRT)|(1<<SPMEN)
003f93 940e 3fb9 	call Do_SPM				;записать страницу
         
003f95 e131      	ldi r19,(1<<RWWSRE)|(1<<SPMEN) ;разрешить адресацию области RWW
003f96 940e 3fb9 	call Do_SPM
         
003f98 e8a0      	ldi xl,low(PAGESIZE*2)		;проверяем записанные данные
003f99 e0b0      	ldi xh,high(PAGESIZE*2)
         
         ;	subi YL,low(PAGESIZE*2)	
         ;	sbci YH,high(PAGESIZE*2)
003f9a 2fd5      	mov yh,r21	;vosstanavlivaem Y
003f9b 2fc4      	mov yl,r20
         
          Rd_loop:
003f9c 9005      	lpm r0,Z+
003f9d 9019      	ld r1,Y+
         
003f9e 1001      	cpse r0,r1	;sravnit` i propustit` if =;
003f9f c014      	rjmp error
         
003fa0 9711      	sbiw xl,1
003fa1 f7d1      	brne Rd_loop
         
          return: 			;возврат в основную программу
003fa2 b707      	in r16,SPMCR
003fa3 ff06      	sbrs r16,RWWSB
003fa4 c004      	rjmp wyhboot
         ;RWWSB_unlock:				;poka возврат zapreschen
003fa5 e131      	ldi r19,(1<<RWWSRE)|(1<<SPMEN);разрешить адресацию области RWW
003fa6 940e 3fb9 	call Do_spm
003fa8 cff9      	rjmp return
         
          wyhboot:
003fa9 91bf      	pop xh
003faa 91af      	pop xl
003fab 919f      	pop r25
003fac 918f      	pop r24
003fad 915f      	pop r21
003fae 914f      	pop r20
003faf 913f      	pop r19
003fb0 911f      	pop r17
003fb1 901f      	pop r1
003fb2 900f      	pop r0
003fb3 9508      	ret
         
          error:			;действие в случае ошибки
         
         ;ldi r16,'E'
         ;rcall wywuartp
003fb4 2ff9      	mov zh,r25
003fb5 2fe8      	mov zl,r24
003fb6 2fd5      	mov yh,r21
003fb7 2fc4      	mov yl,r20
003fb8 cfc7      	rjmp write_page_cikl
         
         
          Do_SPM:
         
          	Wait_SPM:
003fb9 b707      		in r16,SPMCR		;можно ли выполнить команду SPM?
003fba fd00      		sbrc r16,SPMEN
003fbb cffd      		rjmp Wait_SPM
         
         
003fbc b71f      		in r17,SREG			;сохраняем регистр признаков
003fbd 94f8      		cli
          	Wait_EEPROM:
003fbe 99e1      		sbic EECR,EEWE		;ждем окончания работы с ЕЕПРОМ
003fbf cffe      		rjmp Wait_EEPROM
         
003fc0 bf37      		out SPMCR,r19	;даем команду
003fc1 95e8      		spm
003fc2 0000      		NOP
003fc3 0000      		NOP
003fc4 0000      		NOP
003fc5 0000      		NOP
         
003fc6 bf1f      		out SREG,r17
003fc7 9508      		ret
         
          .org $3fc8
         
         
         ;tstks_flash:
003fc8 920f      	push r0
003fc9 921f      	push r1
003fca 930f      	push r16
003fcb 931f      	push r17
003fcc 932f      	push r18
003fcd 93ef      	push zl
003fce 93ff      	push zh
003fcf e32e      	ldi r18,$3e	;last adrH+1
003fd0 0f2f      	add r18,zh
003fd1 2700      	clr r16
003fd2 2711      	clr r17
         
          provksf:
003fd3 9005      	lpm r0,z+
003fd4 9015      	lpm r1,z+
003fd5 0d00      	add r16,r0
003fd6 1d11      	adc r17,r1
003fd7 17f2      	cp zh,r18
003fd8 f7d1      	brne provksf
003fd9 9503      	inc r16
003fda f409      	brne provksf1
003fdb 9513      	inc r17
          provksf1:
003fdc 91ff      	pop zh
003fdd 91ef      	pop zl
003fde 912f      	pop r18
003fdf 911f      	pop r17
003fe0 910f      	pop r16
003fe1 901f      	pop r1
003fe2 900f      	pop r0
003fe3 9508      	ret
         
         
          .org $3fe7
         
          wsp:
          wywuartp:
003fe7 9b5d      	sbis ucsra,udre   ;UART
003fe8 cffe      	rjmp wywuartp
003fe9 b90c      	out udr,r16	;
003fea 9508      	ret
          wbp:			;из r16
003feb 930f      	push r16
003fec 9502      	swap r16
003fed d001      	rcall wbp1
003fee 910f      	pop r16
          wbp1:
003fef 930f      	push r16
003ff0 932f      	push r18
003ff1 700f      	andi r16,$0f
003ff2 300a      	cpi r16,$0a
003ff3 f010      	brcs wbp2
003ff4 e027      	ldi r18,$7
003ff5 0f02      	add r16,r18
          wbp2:
003ff6 e320      	ldi r18,$30
003ff7 0f02      	add r16,r18
003ff8 dfee      	rcall wywuartp
003ff9 912f      	pop r18
003ffa 910f      	pop r16
003ffb 9508      	ret
         
         
          	.include "serno.a"
          .equ serno=992;1048
          .equ sernoH=$ffff
         ;mac=(inversija sernoH)*32768 + (serno-1)*2
         
          	.org $3ffc
         ;mac:
          	.dw (serno-1)*2
003ffc 07be
         ;nomver_zeleza:
          	.db ver_zeleza,0
003ffd 0001
          	.dw (sernoH)
003ffe ffff
         
          .exit

Assembly complete with no errors.
